Archive member included because of file (symbol)

/usr/local/popcorn/x86_64/lib/libc.a(__libc_start_main.o)
                              /usr/local/popcorn/x86_64/lib/crt1.o (__libc_start_main)
/usr/local/popcorn/x86_64/lib/libc.a(exit.o)
                              /usr/local/popcorn/x86_64/lib/libc.a(__libc_start_main.o) (exit)
/usr/local/popcorn/x86_64/lib/libc.a(libc.o)
                              /usr/local/popcorn/x86_64/lib/libc.a(__libc_start_main.o) (__hwcap)
/usr/local/popcorn/x86_64/lib/libc.a(printf.o)
                              popcorn-hello_x86_64.o (printf)
/usr/local/popcorn/x86_64/lib/libc.a(stdout.o)
                              /usr/local/popcorn/x86_64/lib/libc.a(printf.o) (stdout)
/usr/local/popcorn/x86_64/lib/libc.a(vfprintf.o)
                              /usr/local/popcorn/x86_64/lib/libc.a(printf.o) (vfprintf)
/usr/local/popcorn/x86_64/lib/libc.a(strnlen.o)
                              /usr/local/popcorn/x86_64/lib/libc.a(vfprintf.o) (strnlen)
/usr/local/popcorn/x86_64/lib/libc.a(memset.o)
                              /usr/local/popcorn/x86_64/lib/libc.a(__libc_start_main.o) (memset)
/usr/local/popcorn/x86_64/lib/libc.a(__environ.o)
                              /usr/local/popcorn/x86_64/lib/libc.a(__libc_start_main.o) (__environ)
/usr/local/popcorn/x86_64/lib/libc.a(__init_tls.o)
                              /usr/local/popcorn/x86_64/lib/libc.a(__libc_start_main.o) (__init_tls)
/usr/local/popcorn/x86_64/lib/libc.a(__errno_location.o)
                              /usr/local/popcorn/x86_64/lib/libc.a(vfprintf.o) (__errno_location)
/usr/local/popcorn/x86_64/lib/libc.a(strerror.o)
                              /usr/local/popcorn/x86_64/lib/libc.a(vfprintf.o) (strerror)
/usr/local/popcorn/x86_64/lib/libc.a(_Exit.o)
                              /usr/local/popcorn/x86_64/lib/libc.a(exit.o) (_Exit)
/usr/local/popcorn/x86_64/lib/libc.a(__lctrans.o)
                              /usr/local/popcorn/x86_64/lib/libc.a(strerror.o) (__lctrans)
/usr/local/popcorn/x86_64/lib/libc.a(__fpclassifyl.o)
                              /usr/local/popcorn/x86_64/lib/libc.a(vfprintf.o) (__fpclassifyl)
/usr/local/popcorn/x86_64/lib/libc.a(__signbitl.o)
                              /usr/local/popcorn/x86_64/lib/libc.a(vfprintf.o) (__signbitl)
/usr/local/popcorn/x86_64/lib/libc.a(frexpl.o)
                              /usr/local/popcorn/x86_64/lib/libc.a(vfprintf.o) (frexpl)
/usr/local/popcorn/x86_64/lib/libc.a(wctomb.o)
                              /usr/local/popcorn/x86_64/lib/libc.a(vfprintf.o) (wctomb)
/usr/local/popcorn/x86_64/lib/libc.a(__lockfile.o)
                              /usr/local/popcorn/x86_64/lib/libc.a(vfprintf.o) (__lockfile)
/usr/local/popcorn/x86_64/lib/libc.a(__stdio_close.o)
                              /usr/local/popcorn/x86_64/lib/libc.a(stdout.o) (__stdio_close)
/usr/local/popcorn/x86_64/lib/libc.a(__stdio_seek.o)
                              /usr/local/popcorn/x86_64/lib/libc.a(stdout.o) (__stdio_seek)
/usr/local/popcorn/x86_64/lib/libc.a(__stdout_write.o)
                              /usr/local/popcorn/x86_64/lib/libc.a(stdout.o) (__stdout_write)
/usr/local/popcorn/x86_64/lib/libc.a(fwrite.o)
                              /usr/local/popcorn/x86_64/lib/libc.a(vfprintf.o) (__fwritex)
/usr/local/popcorn/x86_64/lib/libc.a(memchr.o)
                              /usr/local/popcorn/x86_64/lib/libc.a(strnlen.o) (memchr)
/usr/local/popcorn/x86_64/lib/libc.a(memcpy.o)
                              /usr/local/popcorn/x86_64/lib/libc.a(__init_tls.o) (memcpy)
/usr/local/popcorn/x86_64/lib/libc.a(__wait.o)
                              /usr/local/popcorn/x86_64/lib/libc.a(__lockfile.o) (__wait)
/usr/local/popcorn/x86_64/lib/libc.a(__set_thread_area.o)
                              /usr/local/popcorn/x86_64/lib/libc.a(__init_tls.o) (__set_thread_area)
/usr/local/popcorn/x86_64/lib/libc.a(syscall_ret.o)
                              /usr/local/popcorn/x86_64/lib/libc.a(__stdio_close.o) (__syscall_ret)
/usr/local/popcorn/x86_64/lib/libc.a(wcrtomb.o)
                              /usr/local/popcorn/x86_64/lib/libc.a(wctomb.o) (wcrtomb)
/usr/local/popcorn/x86_64/lib/libc.a(__stdio_write.o)
                              /usr/local/popcorn/x86_64/lib/libc.a(__stdout_write.o) (__stdio_write)
/usr/local/popcorn/x86_64/lib/libc.a(__towrite.o)
                              /usr/local/popcorn/x86_64/lib/libc.a(fwrite.o) (__towrite)
/usr/local/popcorn/x86_64/lib/libc.a(__stdio_exit.o)
                              /usr/local/popcorn/x86_64/lib/libc.a(__towrite.o) (__stdio_exit_needed)
/usr/local/popcorn/x86_64/lib/libc.a(ofl.o)
                              /usr/local/popcorn/x86_64/lib/libc.a(__stdio_exit.o) (__ofl_lock)
/usr/local/popcorn/x86_64/lib/libc.a(__lock.o)
                              /usr/local/popcorn/x86_64/lib/libc.a(ofl.o) (__lock)
/usr/local/popcorn/x86_64/lib/libmigrate.a(migrate.o)
                              popcorn-hello_x86_64.o (check_migrate)
/usr/local/popcorn/x86_64/lib/libmigrate.a(trigger.o)
                              /usr/local/popcorn/x86_64/lib/libmigrate.a(migrate.o) (clear_migrate_flag)
/usr/local/popcorn/x86_64/lib/libmigrate.a(migrate_x86_64.o)
                              /usr/local/popcorn/x86_64/lib/libmigrate.a(migrate.o) (__migrate_fixup_x86_64)
/usr/local/popcorn/x86_64/lib/libmigrate.a(migrate_aarch64.o)
                              /usr/local/popcorn/x86_64/lib/libmigrate.a(migrate.o) (__migrate_fixup_aarch64)
/usr/local/popcorn/x86_64/lib/libmigrate.a(migrate_powerpc64.o)
                              /usr/local/popcorn/x86_64/lib/libmigrate.a(migrate.o) (__migrate_fixup_powerpc64)
/usr/local/popcorn/x86_64/lib/libmigrate.a(mapping.o)
                              /usr/local/popcorn/x86_64/lib/libmigrate.a(migrate.o) (get_node_mapping)
/usr/local/popcorn/x86_64/lib/libstack-transform.a(userspace.o)
                              /usr/local/popcorn/x86_64/lib/libmigrate.a(migrate.o) (st_userspace_rewrite)
/usr/local/popcorn/x86_64/lib/libstack-transform.a(init.o)
                              /usr/local/popcorn/x86_64/lib/libstack-transform.a(userspace.o) (st_destroy)
/usr/local/popcorn/x86_64/lib/libstack-transform.a(rewrite.o)
                              /usr/local/popcorn/x86_64/lib/libstack-transform.a(userspace.o) (st_rewrite_stack)
/usr/local/popcorn/x86_64/lib/libstack-transform.a(unwind.o)
                              /usr/local/popcorn/x86_64/lib/libstack-transform.a(rewrite.o) (bootstrap_first_frame)
/usr/local/popcorn/x86_64/lib/libstack-transform.a(util.o)
                              /usr/local/popcorn/x86_64/lib/libstack-transform.a(rewrite.o) (get_function_address)
/usr/local/popcorn/x86_64/lib/libstack-transform.a(properties.o)
                              /usr/local/popcorn/x86_64/lib/libstack-transform.a(util.o) (properties_aarch64)
/usr/local/popcorn/x86_64/lib/libstack-transform.a(regs.o)
                              /usr/local/popcorn/x86_64/lib/libstack-transform.a(util.o) (regs_aarch64)
/usr/local/popcorn/x86_64/lib/libstack-transform.a(properties.o)
                              /usr/local/popcorn/x86_64/lib/libstack-transform.a(util.o) (properties_powerpc64)
/usr/local/popcorn/x86_64/lib/libstack-transform.a(regs.o)
                              /usr/local/popcorn/x86_64/lib/libstack-transform.a(util.o) (regs_powerpc64)
/usr/local/popcorn/x86_64/lib/libstack-transform.a(properties.o)
                              /usr/local/popcorn/x86_64/lib/libstack-transform.a(util.o) (properties_x86_64)
/usr/local/popcorn/x86_64/lib/libstack-transform.a(regs.o)
                              /usr/local/popcorn/x86_64/lib/libstack-transform.a(util.o) (regs_x86_64)
/usr/local/popcorn/x86_64/lib/libstack-transform.a(data.o)
                              /usr/local/popcorn/x86_64/lib/libstack-transform.a(rewrite.o) (get_savedfbp_loc)
/usr/local/popcorn/x86_64/lib/libelf.a(begin.o)
                              /usr/local/popcorn/x86_64/lib/libstack-transform.a(init.o) (elf_begin)
/usr/local/popcorn/x86_64/lib/libelf.a(end.o)
                              /usr/local/popcorn/x86_64/lib/libstack-transform.a(init.o) (elf_end)
/usr/local/popcorn/x86_64/lib/libelf.a(getdata.o)
                              /usr/local/popcorn/x86_64/lib/libstack-transform.a(util.o) (elf_getdata)
/usr/local/popcorn/x86_64/lib/libelf.a(getident.o)
                              /usr/local/popcorn/x86_64/lib/libstack-transform.a(init.o) (elf_getident)
/usr/local/popcorn/x86_64/lib/libelf.a(nextscn.o)
                              /usr/local/popcorn/x86_64/lib/libstack-transform.a(util.o) (elf_nextscn)
/usr/local/popcorn/x86_64/lib/libelf.a(strptr.o)
                              /usr/local/popcorn/x86_64/lib/libstack-transform.a(util.o) (elf_strptr)
/usr/local/popcorn/x86_64/lib/libelf.a(version.o)
                              /usr/local/popcorn/x86_64/lib/libstack-transform.a(userspace.o) (elf_version)
/usr/local/popcorn/x86_64/lib/libelf.a(32.getehdr.o)
                              /usr/local/popcorn/x86_64/lib/libstack-transform.a(init.o) (elf64_getehdr)
/usr/local/popcorn/x86_64/lib/libelf.a(32.xlatetof.o)
                              /usr/local/popcorn/x86_64/lib/libelf.a(getdata.o) (_elf32_xltsize)
/usr/local/popcorn/x86_64/lib/libelf.a(cook.o)
                              /usr/local/popcorn/x86_64/lib/libelf.a(getident.o) (_elf_cook)
/usr/local/popcorn/x86_64/lib/libelf.a(data.o)
                              /usr/local/popcorn/x86_64/lib/libelf.a(begin.o) (_elf_errno)
/usr/local/popcorn/x86_64/lib/libelf.a(input.o)
                              /usr/local/popcorn/x86_64/lib/libelf.a(begin.o) (_elf_mmap)
/usr/local/popcorn/x86_64/lib/libelf.a(x.elfext.o)
                              /usr/local/popcorn/x86_64/lib/libstack-transform.a(util.o) (elf_getshdrstrndx)
/usr/local/popcorn/x86_64/lib/libelf.a(64.xlatetof.o)
                              /usr/local/popcorn/x86_64/lib/libelf.a(getdata.o) (_elf64_xltsize)
/usr/local/popcorn/x86_64/lib/libelf.a(gelfshdr.o)
                              /usr/local/popcorn/x86_64/lib/libstack-transform.a(util.o) (gelf_getshdr)
/usr/local/popcorn/x86_64/lib/libelf.a(swap64.o)
                              /usr/local/popcorn/x86_64/lib/libelf.a(64.xlatetof.o) (_elf_load_i64L)
/usr/local/popcorn/x86_64/lib/libelf.a(verdef_32_tof.o)
                              /usr/local/popcorn/x86_64/lib/libelf.a(32.xlatetof.o) (_elf_verdef_32L11_tof)
/usr/local/popcorn/x86_64/lib/libelf.a(verdef_32_tom.o)
                              /usr/local/popcorn/x86_64/lib/libelf.a(32.xlatetof.o) (_elf_verdef_32L11_tom)
/usr/local/popcorn/x86_64/lib/libelf.a(verdef_64_tof.o)
                              /usr/local/popcorn/x86_64/lib/libelf.a(64.xlatetof.o) (_elf_verdef_64L11_tof)
/usr/local/popcorn/x86_64/lib/libelf.a(verdef_64_tom.o)
                              /usr/local/popcorn/x86_64/lib/libelf.a(64.xlatetof.o) (_elf_verdef_64L11_tom)
/usr/local/popcorn/x86_64/lib/libelf.a(getscn.o)
                              /usr/local/popcorn/x86_64/lib/libelf.a(strptr.o) (elf_getscn)
/usr/local/popcorn/x86_64/lib/libelf.a(newscn.o)
                              /usr/local/popcorn/x86_64/lib/libelf.a(x.elfext.o) (_elf_first_scn)
/usr/local/popcorn/x86_64/lib/libelf.a(32.fsize.o)
                              /usr/local/popcorn/x86_64/lib/libelf.a(cook.o) (_elf_fmsize)
/usr/local/popcorn/x86_64/lib/libc.a(arch_crash.o)
                              /usr/local/popcorn/x86_64/lib/libmigrate.a(migrate_x86_64.o) (crash_x86_64)
/usr/local/popcorn/x86_64/lib/libc.a(getenv.o)
                              /usr/local/popcorn/x86_64/lib/libmigrate.a(mapping.o) (getenv)
/usr/local/popcorn/x86_64/lib/libc.a(platform.o)
                              /usr/local/popcorn/x86_64/lib/libmigrate.a(migrate.o) (popcorn_getnid)
/usr/local/popcorn/x86_64/lib/libc.a(assert.o)
                              /usr/local/popcorn/x86_64/lib/libmigrate.a(migrate.o) (__assert_fail)
/usr/local/popcorn/x86_64/lib/libc.a(open.o)
                              /usr/local/popcorn/x86_64/lib/libstack-transform.a(init.o) (open)
/usr/local/popcorn/x86_64/lib/libc.a(calloc.o)
                              /usr/local/popcorn/x86_64/lib/libmigrate.a(mapping.o) (calloc)
/usr/local/popcorn/x86_64/lib/libc.a(lite_malloc.o)
                              /usr/local/popcorn/x86_64/lib/libc.a(calloc.o) (__malloc0)
/usr/local/popcorn/x86_64/lib/libc.a(malloc.o)
                              /usr/local/popcorn/x86_64/lib/libmigrate.a(mapping.o) (free)
/usr/local/popcorn/x86_64/lib/libc.a(popcorn_malloc.o)
                              /usr/local/popcorn/x86_64/lib/libc.a(calloc.o) (__popcorn_malloc0)
/usr/local/popcorn/x86_64/lib/libc.a(getrlimit.o)
                              /usr/local/popcorn/x86_64/lib/libstack-transform.a(userspace.o) (getrlimit)
/usr/local/popcorn/x86_64/lib/libc.a(syscall.o)
                              /usr/local/popcorn/x86_64/lib/libmigrate.a(trigger.o) (syscall)
/usr/local/popcorn/x86_64/lib/libc.a(madvise.o)
                              /usr/local/popcorn/x86_64/lib/libc.a(malloc.o) (__madvise)
/usr/local/popcorn/x86_64/lib/libc.a(mmap.o)
                              /usr/local/popcorn/x86_64/lib/libc.a(malloc.o) (__mmap)
/usr/local/popcorn/x86_64/lib/libc.a(mremap.o)
                              /usr/local/popcorn/x86_64/lib/libc.a(malloc.o) (__mremap)
/usr/local/popcorn/x86_64/lib/libc.a(munmap.o)
                              /usr/local/popcorn/x86_64/lib/libc.a(malloc.o) (__munmap)
/usr/local/popcorn/x86_64/lib/libc.a(sigaction.o)
                              /usr/local/popcorn/x86_64/lib/libmigrate.a(trigger.o) (sigaction)
/usr/local/popcorn/x86_64/lib/libc.a(sigemptyset.o)
                              /usr/local/popcorn/x86_64/lib/libmigrate.a(trigger.o) (sigemptyset)
/usr/local/popcorn/x86_64/lib/libc.a(sigrtmin.o)
                              /usr/local/popcorn/x86_64/lib/libmigrate.a(trigger.o) (__libc_current_sigrtmin)
/usr/local/popcorn/x86_64/lib/libc.a(restore.o)
                              /usr/local/popcorn/x86_64/lib/libc.a(sigaction.o) (__restore_rt)
/usr/local/popcorn/x86_64/lib/libc.a(fclose.o)
                              /usr/local/popcorn/x86_64/lib/libmigrate.a(mapping.o) (fclose)
/usr/local/popcorn/x86_64/lib/libc.a(fflush.o)
                              /usr/local/popcorn/x86_64/lib/libc.a(assert.o) (fflush)
/usr/local/popcorn/x86_64/lib/libc.a(fopen.o)
                              /usr/local/popcorn/x86_64/lib/libmigrate.a(mapping.o) (fopen)
/usr/local/popcorn/x86_64/lib/libc.a(fprintf.o)
                              /usr/local/popcorn/x86_64/lib/libstack-transform.a(rewrite.o) (fprintf)
/usr/local/popcorn/x86_64/lib/libc.a(fscanf.o)
                              /usr/local/popcorn/x86_64/lib/libmigrate.a(mapping.o) (fscanf)
/usr/local/popcorn/x86_64/lib/libc.a(fseek.o)
                              /usr/local/popcorn/x86_64/lib/libmigrate.a(mapping.o) (fseek)
/usr/local/popcorn/x86_64/lib/libc.a(getc.o)
                              /usr/local/popcorn/x86_64/lib/libmigrate.a(mapping.o) (getc)
/usr/local/popcorn/x86_64/lib/libc.a(getline.o)
                              /usr/local/popcorn/x86_64/lib/libstack-transform.a(userspace.o) (getline)
/usr/local/popcorn/x86_64/lib/libc.a(perror.o)
                              /usr/local/popcorn/x86_64/lib/libmigrate.a(migrate.o) (perror)
/usr/local/popcorn/x86_64/lib/libc.a(snprintf.o)
                              /usr/local/popcorn/x86_64/lib/libstack-transform.a(userspace.o) (snprintf)
/usr/local/popcorn/x86_64/lib/libc.a(sscanf.o)
                              /usr/local/popcorn/x86_64/lib/libstack-transform.a(userspace.o) (sscanf)
/usr/local/popcorn/x86_64/lib/libc.a(stderr.o)
                              /usr/local/popcorn/x86_64/lib/libmigrate.a(migrate.o) (stderr)
/usr/local/popcorn/x86_64/lib/libc.a(vfscanf.o)
                              /usr/local/popcorn/x86_64/lib/libc.a(fscanf.o) (vfscanf)
/usr/local/popcorn/x86_64/lib/libc.a(vsnprintf.o)
                              /usr/local/popcorn/x86_64/lib/libc.a(snprintf.o) (vsnprintf)
/usr/local/popcorn/x86_64/lib/libc.a(vsscanf.o)
                              /usr/local/popcorn/x86_64/lib/libc.a(sscanf.o) (vsscanf)
/usr/local/popcorn/x86_64/lib/libc.a(bsearch.o)
                              /usr/local/popcorn/x86_64/lib/libmigrate.a(mapping.o) (bsearch)
/usr/local/popcorn/x86_64/lib/libc.a(qsort.o)
                              /usr/local/popcorn/x86_64/lib/libmigrate.a(mapping.o) (qsort)
/usr/local/popcorn/x86_64/lib/libc.a(strtol.o)
                              /usr/local/popcorn/x86_64/lib/libelf.a(version.o) (strtol)
/usr/local/popcorn/x86_64/lib/libc.a(strchr.o)
                              /usr/local/popcorn/x86_64/lib/libc.a(fopen.o) (strchr)
/usr/local/popcorn/x86_64/lib/libc.a(strchrnul.o)
                              /usr/local/popcorn/x86_64/lib/libc.a(getenv.o) (__strchrnul)
/usr/local/popcorn/x86_64/lib/libc.a(strcmp.o)
                              /usr/local/popcorn/x86_64/lib/libstack-transform.a(util.o) (strcmp)
/usr/local/popcorn/x86_64/lib/libc.a(strlen.o)
                              /usr/local/popcorn/x86_64/lib/libc.a(perror.o) (strlen)
/usr/local/popcorn/x86_64/lib/libc.a(strncmp.o)
                              /usr/local/popcorn/x86_64/lib/libstack-transform.a(userspace.o) (strncmp)
/usr/local/popcorn/x86_64/lib/libc.a(memmove.o)
                              /usr/local/popcorn/x86_64/lib/libelf.a(32.xlatetof.o) (memmove)
/usr/local/popcorn/x86_64/lib/libc.a(__syscall_cp.o)
                              /usr/local/popcorn/x86_64/lib/libc.a(open.o) (__syscall_cp)
/usr/local/popcorn/x86_64/lib/libc.a(pthread_attr_get.o)
                              /usr/local/popcorn/x86_64/lib/libstack-transform.a(userspace.o) (pthread_attr_getstack)
/usr/local/popcorn/x86_64/lib/libc.a(pthread_getattr_np.o)
                              /usr/local/popcorn/x86_64/lib/libstack-transform.a(userspace.o) (pthread_getattr_np)
/usr/local/popcorn/x86_64/lib/libc.a(pthread_migrate.o)
                              /usr/local/popcorn/x86_64/lib/libmigrate.a(migrate.o) (pthread_get_migrate_args)
/usr/local/popcorn/x86_64/lib/libc.a(pthread_self.o)
                              /usr/local/popcorn/x86_64/lib/libstack-transform.a(userspace.o) (pthread_self)
/usr/local/popcorn/x86_64/lib/libc.a(close.o)
                              /usr/local/popcorn/x86_64/lib/libstack-transform.a(init.o) (close)
/usr/local/popcorn/x86_64/lib/libc.a(getpid.o)
                              /usr/local/popcorn/x86_64/lib/libstack-transform.a(userspace.o) (getpid)
/usr/local/popcorn/x86_64/lib/libc.a(lseek.o)
                              /usr/local/popcorn/x86_64/lib/libelf.a(begin.o) (lseek)
/usr/local/popcorn/x86_64/lib/libc.a(read.o)
                              /usr/local/popcorn/x86_64/lib/libelf.a(input.o) (read)
/usr/local/popcorn/x86_64/lib/libc.a(abort.o)
                              /usr/local/popcorn/x86_64/lib/libc.a(assert.o) (abort)
/usr/local/popcorn/x86_64/lib/libc.a(floatscan.o)
                              /usr/local/popcorn/x86_64/lib/libc.a(vfscanf.o) (__floatscan)
/usr/local/popcorn/x86_64/lib/libc.a(intscan.o)
                              /usr/local/popcorn/x86_64/lib/libc.a(vfscanf.o) (__intscan)
/usr/local/popcorn/x86_64/lib/libc.a(shgetc.o)
                              /usr/local/popcorn/x86_64/lib/libc.a(vfscanf.o) (__shgetc)
/usr/local/popcorn/x86_64/lib/libc.a(syscall.o)
                              /usr/local/popcorn/x86_64/lib/libc.a(__syscall_cp.o) (__syscall)
/usr/local/popcorn/x86_64/lib/libc.a(expand_heap.o)
                              /usr/local/popcorn/x86_64/lib/libc.a(lite_malloc.o) (__expand_heap)
/usr/local/popcorn/x86_64/lib/libc.a(copysignl.o)
                              /usr/local/popcorn/x86_64/lib/libc.a(floatscan.o) (copysignl)
/usr/local/popcorn/x86_64/lib/libc.a(scalbn.o)
                              /usr/local/popcorn/x86_64/lib/libc.a(floatscan.o) (scalbn)
/usr/local/popcorn/x86_64/lib/libc.a(scalbnl.o)
                              /usr/local/popcorn/x86_64/lib/libc.a(floatscan.o) (scalbnl)
/usr/local/popcorn/x86_64/lib/libc.a(fabs.o)
                              /usr/local/popcorn/x86_64/lib/libc.a(floatscan.o) (fabs)
/usr/local/popcorn/x86_64/lib/libc.a(fmodl.o)
                              /usr/local/popcorn/x86_64/lib/libc.a(floatscan.o) (fmodl)
/usr/local/popcorn/x86_64/lib/libc.a(mbrtowc.o)
                              /usr/local/popcorn/x86_64/lib/libc.a(vfscanf.o) (mbrtowc)
/usr/local/popcorn/x86_64/lib/libc.a(mbsinit.o)
                              /usr/local/popcorn/x86_64/lib/libc.a(vfscanf.o) (mbsinit)
/usr/local/popcorn/x86_64/lib/libc.a(block.o)
                              /usr/local/popcorn/x86_64/lib/libc.a(abort.o) (__block_all_sigs)
/usr/local/popcorn/x86_64/lib/libc.a(raise.o)
                              /usr/local/popcorn/x86_64/lib/libc.a(abort.o) (raise)
/usr/local/popcorn/x86_64/lib/libc.a(__fdopen.o)
                              /usr/local/popcorn/x86_64/lib/libc.a(fopen.o) (__fdopen)
/usr/local/popcorn/x86_64/lib/libc.a(__fmodeflags.o)
                              /usr/local/popcorn/x86_64/lib/libc.a(fopen.o) (__fmodeflags)
/usr/local/popcorn/x86_64/lib/libc.a(__stdio_read.o)
                              /usr/local/popcorn/x86_64/lib/libc.a(__fdopen.o) (__stdio_read)
/usr/local/popcorn/x86_64/lib/libc.a(__string_read.o)
                              /usr/local/popcorn/x86_64/lib/libc.a(vsscanf.o) (__string_read)
/usr/local/popcorn/x86_64/lib/libc.a(__uflow.o)
                              /usr/local/popcorn/x86_64/lib/libc.a(getc.o) (__uflow)
/usr/local/popcorn/x86_64/lib/libc.a(fputc.o)
                              /usr/local/popcorn/x86_64/lib/libc.a(perror.o) (fputc)
/usr/local/popcorn/x86_64/lib/libc.a(getdelim.o)
                              /usr/local/popcorn/x86_64/lib/libc.a(getline.o) (getdelim)
/usr/local/popcorn/x86_64/lib/libc.a(ofl_add.o)
                              /usr/local/popcorn/x86_64/lib/libc.a(__fdopen.o) (__ofl_add)
/usr/local/popcorn/x86_64/lib/libc.a(internal.o)
                              /usr/local/popcorn/x86_64/lib/libc.a(mbrtowc.o) (__fsmu8)
/usr/local/popcorn/x86_64/lib/libc.a(__overflow.o)
                              /usr/local/popcorn/x86_64/lib/libc.a(fputc.o) (__overflow)
/usr/local/popcorn/x86_64/lib/libc.a(__toread.o)
                              /usr/local/popcorn/x86_64/lib/libc.a(__uflow.o) (__toread)

Allocating common symbols
Common symbol       size              file

mal                 0x20000           /usr/local/popcorn/x86_64/lib/libc.a(popcorn_malloc.o)
__libc              0x70              /usr/local/popcorn/x86_64/lib/libc.a(libc.o)
__hwcap             0x8               /usr/local/popcorn/x86_64/lib/libc.a(libc.o)
__sysinfo           0x8               /usr/local/popcorn/x86_64/lib/libc.a(libc.o)

Discarded input sections

 .note.GNU-stack
                0x0000000000000000        0x0 0x1 popcorn-hello_x86_64.o
 .note.GNU-stack
                0x0000000000000000        0x0 0x1 /usr/local/popcorn/x86_64/lib/crt1.o
 .note.GNU-stack
                0x0000000000000000        0x0 0x1 /usr/local/popcorn/x86_64/lib/libc.a(__libc_start_main.o)
 .note.GNU-stack
                0x0000000000000000        0x0 0x1 /usr/local/popcorn/x86_64/lib/libc.a(exit.o)
 .note.GNU-stack
                0x0000000000000000        0x0 0x1 /usr/local/popcorn/x86_64/lib/libc.a(libc.o)
 .note.GNU-stack
                0x0000000000000000        0x0 0x1 /usr/local/popcorn/x86_64/lib/libc.a(printf.o)
 .note.GNU-stack
                0x0000000000000000        0x0 0x1 /usr/local/popcorn/x86_64/lib/libc.a(stdout.o)
 .note.GNU-stack
                0x0000000000000000        0x0 0x1 /usr/local/popcorn/x86_64/lib/libc.a(vfprintf.o)
 .note.GNU-stack
                0x0000000000000000        0x0 0x1 /usr/local/popcorn/x86_64/lib/libc.a(strnlen.o)
 .note.GNU-stack
                0x0000000000000000        0x0 0x1 /usr/local/popcorn/x86_64/lib/libc.a(memset.o)
 .note.GNU-stack
                0x0000000000000000        0x0 0x1 /usr/local/popcorn/x86_64/lib/libc.a(__environ.o)
 .note.GNU-stack
                0x0000000000000000        0x0 0x1 /usr/local/popcorn/x86_64/lib/libc.a(__init_tls.o)
 .note.GNU-stack
                0x0000000000000000        0x0 0x1 /usr/local/popcorn/x86_64/lib/libc.a(__errno_location.o)
 .note.GNU-stack
                0x0000000000000000        0x0 0x1 /usr/local/popcorn/x86_64/lib/libc.a(strerror.o)
 .note.GNU-stack
                0x0000000000000000        0x0 0x1 /usr/local/popcorn/x86_64/lib/libc.a(_Exit.o)
 .note.GNU-stack
                0x0000000000000000        0x0 0x1 /usr/local/popcorn/x86_64/lib/libc.a(__lctrans.o)
 .note.GNU-stack
                0x0000000000000000        0x0 0x1 /usr/local/popcorn/x86_64/lib/libc.a(__fpclassifyl.o)
 .note.GNU-stack
                0x0000000000000000        0x0 0x1 /usr/local/popcorn/x86_64/lib/libc.a(__signbitl.o)
 .note.GNU-stack
                0x0000000000000000        0x0 0x1 /usr/local/popcorn/x86_64/lib/libc.a(frexpl.o)
 .note.GNU-stack
                0x0000000000000000        0x0 0x1 /usr/local/popcorn/x86_64/lib/libc.a(wctomb.o)
 .note.GNU-stack
                0x0000000000000000        0x0 0x1 /usr/local/popcorn/x86_64/lib/libc.a(__lockfile.o)
 .note.GNU-stack
                0x0000000000000000        0x0 0x1 /usr/local/popcorn/x86_64/lib/libc.a(__stdio_close.o)
 .note.GNU-stack
                0x0000000000000000        0x0 0x1 /usr/local/popcorn/x86_64/lib/libc.a(__stdio_seek.o)
 .note.GNU-stack
                0x0000000000000000        0x0 0x1 /usr/local/popcorn/x86_64/lib/libc.a(__stdout_write.o)
 .note.GNU-stack
                0x0000000000000000        0x0 0x1 /usr/local/popcorn/x86_64/lib/libc.a(fwrite.o)
 .note.GNU-stack
                0x0000000000000000        0x0 0x1 /usr/local/popcorn/x86_64/lib/libc.a(memchr.o)
 .note.GNU-stack
                0x0000000000000000        0x0 0x1 /usr/local/popcorn/x86_64/lib/libc.a(memcpy.o)
 .note.GNU-stack
                0x0000000000000000        0x0 0x1 /usr/local/popcorn/x86_64/lib/libc.a(__wait.o)
 .note.GNU-stack
                0x0000000000000000        0x0 0x1 /usr/local/popcorn/x86_64/lib/libc.a(__set_thread_area.o)
 .note.GNU-stack
                0x0000000000000000        0x0 0x1 /usr/local/popcorn/x86_64/lib/libc.a(syscall_ret.o)
 .note.GNU-stack
                0x0000000000000000        0x0 0x1 /usr/local/popcorn/x86_64/lib/libc.a(wcrtomb.o)
 .note.GNU-stack
                0x0000000000000000        0x0 0x1 /usr/local/popcorn/x86_64/lib/libc.a(__stdio_write.o)
 .note.GNU-stack
                0x0000000000000000        0x0 0x1 /usr/local/popcorn/x86_64/lib/libc.a(__towrite.o)
 .note.GNU-stack
                0x0000000000000000        0x0 0x1 /usr/local/popcorn/x86_64/lib/libc.a(__stdio_exit.o)
 .note.GNU-stack
                0x0000000000000000        0x0 0x1 /usr/local/popcorn/x86_64/lib/libc.a(ofl.o)
 .note.GNU-stack
                0x0000000000000000        0x0 0x1 /usr/local/popcorn/x86_64/lib/libc.a(__lock.o)
 .note.GNU-stack
                0x0000000000000000        0x0 0x1 /usr/local/popcorn/x86_64/lib/libmigrate.a(migrate.o)
 .note.GNU-stack
                0x0000000000000000        0x0 0x1 /usr/local/popcorn/x86_64/lib/libmigrate.a(trigger.o)
 .note.GNU-stack
                0x0000000000000000        0x0 0x1 /usr/local/popcorn/x86_64/lib/libmigrate.a(mapping.o)
 .note.GNU-stack
                0x0000000000000000        0x0 0x1 /usr/local/popcorn/x86_64/lib/libstack-transform.a(userspace.o)
 .note.GNU-stack
                0x0000000000000000        0x0 0x1 /usr/local/popcorn/x86_64/lib/libstack-transform.a(init.o)
 .note.GNU-stack
                0x0000000000000000        0x0 0x1 /usr/local/popcorn/x86_64/lib/libstack-transform.a(rewrite.o)
 .note.GNU-stack
                0x0000000000000000        0x0 0x1 /usr/local/popcorn/x86_64/lib/libstack-transform.a(unwind.o)
 .note.GNU-stack
                0x0000000000000000        0x0 0x1 /usr/local/popcorn/x86_64/lib/libstack-transform.a(util.o)
 .note.GNU-stack
                0x0000000000000000        0x0 0x1 /usr/local/popcorn/x86_64/lib/libstack-transform.a(properties.o)
 .note.GNU-stack
                0x0000000000000000        0x0 0x1 /usr/local/popcorn/x86_64/lib/libstack-transform.a(regs.o)
 .note.GNU-stack
                0x0000000000000000        0x0 0x1 /usr/local/popcorn/x86_64/lib/libstack-transform.a(properties.o)
 .note.GNU-stack
                0x0000000000000000        0x0 0x1 /usr/local/popcorn/x86_64/lib/libstack-transform.a(regs.o)
 .note.GNU-stack
                0x0000000000000000        0x0 0x1 /usr/local/popcorn/x86_64/lib/libstack-transform.a(properties.o)
 .note.GNU-stack
                0x0000000000000000        0x0 0x1 /usr/local/popcorn/x86_64/lib/libstack-transform.a(regs.o)
 .note.GNU-stack
                0x0000000000000000        0x0 0x1 /usr/local/popcorn/x86_64/lib/libstack-transform.a(data.o)
 .note.GNU-stack
                0x0000000000000000        0x0 0x1 /usr/local/popcorn/x86_64/lib/libelf.a(begin.o)
 .note.GNU-stack
                0x0000000000000000        0x0 0x1 /usr/local/popcorn/x86_64/lib/libelf.a(end.o)
 .note.GNU-stack
                0x0000000000000000        0x0 0x1 /usr/local/popcorn/x86_64/lib/libelf.a(getdata.o)
 .note.GNU-stack
                0x0000000000000000        0x0 0x1 /usr/local/popcorn/x86_64/lib/libelf.a(getident.o)
 .note.GNU-stack
                0x0000000000000000        0x0 0x1 /usr/local/popcorn/x86_64/lib/libelf.a(nextscn.o)
 .note.GNU-stack
                0x0000000000000000        0x0 0x1 /usr/local/popcorn/x86_64/lib/libelf.a(strptr.o)
 .note.GNU-stack
                0x0000000000000000        0x0 0x1 /usr/local/popcorn/x86_64/lib/libelf.a(version.o)
 .note.GNU-stack
                0x0000000000000000        0x0 0x1 /usr/local/popcorn/x86_64/lib/libelf.a(32.getehdr.o)
 .note.GNU-stack
                0x0000000000000000        0x0 0x1 /usr/local/popcorn/x86_64/lib/libelf.a(32.xlatetof.o)
 .note.GNU-stack
                0x0000000000000000        0x0 0x1 /usr/local/popcorn/x86_64/lib/libelf.a(cook.o)
 .note.GNU-stack
                0x0000000000000000        0x0 0x1 /usr/local/popcorn/x86_64/lib/libelf.a(data.o)
 .note.GNU-stack
                0x0000000000000000        0x0 0x1 /usr/local/popcorn/x86_64/lib/libelf.a(input.o)
 .note.GNU-stack
                0x0000000000000000        0x0 0x1 /usr/local/popcorn/x86_64/lib/libelf.a(x.elfext.o)
 .note.GNU-stack
                0x0000000000000000        0x0 0x1 /usr/local/popcorn/x86_64/lib/libelf.a(64.xlatetof.o)
 .note.GNU-stack
                0x0000000000000000        0x0 0x1 /usr/local/popcorn/x86_64/lib/libelf.a(gelfshdr.o)
 .note.GNU-stack
                0x0000000000000000        0x0 0x1 /usr/local/popcorn/x86_64/lib/libelf.a(swap64.o)
 .note.GNU-stack
                0x0000000000000000        0x0 0x1 /usr/local/popcorn/x86_64/lib/libelf.a(verdef_32_tof.o)
 .note.GNU-stack
                0x0000000000000000        0x0 0x1 /usr/local/popcorn/x86_64/lib/libelf.a(verdef_32_tom.o)
 .note.GNU-stack
                0x0000000000000000        0x0 0x1 /usr/local/popcorn/x86_64/lib/libelf.a(verdef_64_tof.o)
 .note.GNU-stack
                0x0000000000000000        0x0 0x1 /usr/local/popcorn/x86_64/lib/libelf.a(verdef_64_tom.o)
 .note.GNU-stack
                0x0000000000000000        0x0 0x1 /usr/local/popcorn/x86_64/lib/libelf.a(getscn.o)
 .note.GNU-stack
                0x0000000000000000        0x0 0x1 /usr/local/popcorn/x86_64/lib/libelf.a(newscn.o)
 .note.GNU-stack
                0x0000000000000000        0x0 0x1 /usr/local/popcorn/x86_64/lib/libelf.a(32.fsize.o)
 .note.GNU-stack
                0x0000000000000000        0x0 0x1 /usr/local/popcorn/x86_64/lib/libc.a(arch_crash.o)
 .note.GNU-stack
                0x0000000000000000        0x0 0x1 /usr/local/popcorn/x86_64/lib/libc.a(getenv.o)
 .note.GNU-stack
                0x0000000000000000        0x0 0x1 /usr/local/popcorn/x86_64/lib/libc.a(platform.o)
 .note.GNU-stack
                0x0000000000000000        0x0 0x1 /usr/local/popcorn/x86_64/lib/libc.a(assert.o)
 .note.GNU-stack
                0x0000000000000000        0x0 0x1 /usr/local/popcorn/x86_64/lib/libc.a(open.o)
 .note.GNU-stack
                0x0000000000000000        0x0 0x1 /usr/local/popcorn/x86_64/lib/libc.a(calloc.o)
 .note.GNU-stack
                0x0000000000000000        0x0 0x1 /usr/local/popcorn/x86_64/lib/libc.a(lite_malloc.o)
 .note.GNU-stack
                0x0000000000000000        0x0 0x1 /usr/local/popcorn/x86_64/lib/libc.a(malloc.o)
 .note.GNU-stack
                0x0000000000000000        0x0 0x1 /usr/local/popcorn/x86_64/lib/libc.a(popcorn_malloc.o)
 .note.GNU-stack
                0x0000000000000000        0x0 0x1 /usr/local/popcorn/x86_64/lib/libc.a(getrlimit.o)
 .note.GNU-stack
                0x0000000000000000        0x0 0x1 /usr/local/popcorn/x86_64/lib/libc.a(syscall.o)
 .note.GNU-stack
                0x0000000000000000        0x0 0x1 /usr/local/popcorn/x86_64/lib/libc.a(madvise.o)
 .note.GNU-stack
                0x0000000000000000        0x0 0x1 /usr/local/popcorn/x86_64/lib/libc.a(mmap.o)
 .note.GNU-stack
                0x0000000000000000        0x0 0x1 /usr/local/popcorn/x86_64/lib/libc.a(mremap.o)
 .note.GNU-stack
                0x0000000000000000        0x0 0x1 /usr/local/popcorn/x86_64/lib/libc.a(munmap.o)
 .note.GNU-stack
                0x0000000000000000        0x0 0x1 /usr/local/popcorn/x86_64/lib/libc.a(sigaction.o)
 .note.GNU-stack
                0x0000000000000000        0x0 0x1 /usr/local/popcorn/x86_64/lib/libc.a(sigemptyset.o)
 .note.GNU-stack
                0x0000000000000000        0x0 0x1 /usr/local/popcorn/x86_64/lib/libc.a(sigrtmin.o)
 .note.GNU-stack
                0x0000000000000000        0x0 0x1 /usr/local/popcorn/x86_64/lib/libc.a(restore.o)
 .note.GNU-stack
                0x0000000000000000        0x0 0x1 /usr/local/popcorn/x86_64/lib/libc.a(fclose.o)
 .note.GNU-stack
                0x0000000000000000        0x0 0x1 /usr/local/popcorn/x86_64/lib/libc.a(fflush.o)
 .note.GNU-stack
                0x0000000000000000        0x0 0x1 /usr/local/popcorn/x86_64/lib/libc.a(fopen.o)
 .note.GNU-stack
                0x0000000000000000        0x0 0x1 /usr/local/popcorn/x86_64/lib/libc.a(fprintf.o)
 .note.GNU-stack
                0x0000000000000000        0x0 0x1 /usr/local/popcorn/x86_64/lib/libc.a(fscanf.o)
 .note.GNU-stack
                0x0000000000000000        0x0 0x1 /usr/local/popcorn/x86_64/lib/libc.a(fseek.o)
 .note.GNU-stack
                0x0000000000000000        0x0 0x1 /usr/local/popcorn/x86_64/lib/libc.a(getc.o)
 .note.GNU-stack
                0x0000000000000000        0x0 0x1 /usr/local/popcorn/x86_64/lib/libc.a(getline.o)
 .note.GNU-stack
                0x0000000000000000        0x0 0x1 /usr/local/popcorn/x86_64/lib/libc.a(perror.o)
 .note.GNU-stack
                0x0000000000000000        0x0 0x1 /usr/local/popcorn/x86_64/lib/libc.a(snprintf.o)
 .note.GNU-stack
                0x0000000000000000        0x0 0x1 /usr/local/popcorn/x86_64/lib/libc.a(sscanf.o)
 .note.GNU-stack
                0x0000000000000000        0x0 0x1 /usr/local/popcorn/x86_64/lib/libc.a(stderr.o)
 .note.GNU-stack
                0x0000000000000000        0x0 0x1 /usr/local/popcorn/x86_64/lib/libc.a(vfscanf.o)
 .note.GNU-stack
                0x0000000000000000        0x0 0x1 /usr/local/popcorn/x86_64/lib/libc.a(vsnprintf.o)
 .note.GNU-stack
                0x0000000000000000        0x0 0x1 /usr/local/popcorn/x86_64/lib/libc.a(vsscanf.o)
 .note.GNU-stack
                0x0000000000000000        0x0 0x1 /usr/local/popcorn/x86_64/lib/libc.a(bsearch.o)
 .note.GNU-stack
                0x0000000000000000        0x0 0x1 /usr/local/popcorn/x86_64/lib/libc.a(qsort.o)
 .note.GNU-stack
                0x0000000000000000        0x0 0x1 /usr/local/popcorn/x86_64/lib/libc.a(strtol.o)
 .note.GNU-stack
                0x0000000000000000        0x0 0x1 /usr/local/popcorn/x86_64/lib/libc.a(strchr.o)
 .note.GNU-stack
                0x0000000000000000        0x0 0x1 /usr/local/popcorn/x86_64/lib/libc.a(strchrnul.o)
 .note.GNU-stack
                0x0000000000000000        0x0 0x1 /usr/local/popcorn/x86_64/lib/libc.a(strcmp.o)
 .note.GNU-stack
                0x0000000000000000        0x0 0x1 /usr/local/popcorn/x86_64/lib/libc.a(strlen.o)
 .note.GNU-stack
                0x0000000000000000        0x0 0x1 /usr/local/popcorn/x86_64/lib/libc.a(strncmp.o)
 .note.GNU-stack
                0x0000000000000000        0x0 0x1 /usr/local/popcorn/x86_64/lib/libc.a(memmove.o)
 .note.GNU-stack
                0x0000000000000000        0x0 0x1 /usr/local/popcorn/x86_64/lib/libc.a(__syscall_cp.o)
 .note.GNU-stack
                0x0000000000000000        0x0 0x1 /usr/local/popcorn/x86_64/lib/libc.a(pthread_attr_get.o)
 .note.GNU-stack
                0x0000000000000000        0x0 0x1 /usr/local/popcorn/x86_64/lib/libc.a(pthread_getattr_np.o)
 .note.GNU-stack
                0x0000000000000000        0x0 0x1 /usr/local/popcorn/x86_64/lib/libc.a(pthread_migrate.o)
 .note.GNU-stack
                0x0000000000000000        0x0 0x1 /usr/local/popcorn/x86_64/lib/libc.a(pthread_self.o)
 .note.GNU-stack
                0x0000000000000000        0x0 0x1 /usr/local/popcorn/x86_64/lib/libc.a(close.o)
 .note.GNU-stack
                0x0000000000000000        0x0 0x1 /usr/local/popcorn/x86_64/lib/libc.a(getpid.o)
 .note.GNU-stack
                0x0000000000000000        0x0 0x1 /usr/local/popcorn/x86_64/lib/libc.a(lseek.o)
 .note.GNU-stack
                0x0000000000000000        0x0 0x1 /usr/local/popcorn/x86_64/lib/libc.a(read.o)
 .note.GNU-stack
                0x0000000000000000        0x0 0x1 /usr/local/popcorn/x86_64/lib/libc.a(abort.o)
 .note.GNU-stack
                0x0000000000000000        0x0 0x1 /usr/local/popcorn/x86_64/lib/libc.a(floatscan.o)
 .note.GNU-stack
                0x0000000000000000        0x0 0x1 /usr/local/popcorn/x86_64/lib/libc.a(intscan.o)
 .note.GNU-stack
                0x0000000000000000        0x0 0x1 /usr/local/popcorn/x86_64/lib/libc.a(shgetc.o)
 .note.GNU-stack
                0x0000000000000000        0x0 0x1 /usr/local/popcorn/x86_64/lib/libc.a(syscall.o)
 .note.GNU-stack
                0x0000000000000000        0x0 0x1 /usr/local/popcorn/x86_64/lib/libc.a(expand_heap.o)
 .note.GNU-stack
                0x0000000000000000        0x0 0x1 /usr/local/popcorn/x86_64/lib/libc.a(copysignl.o)
 .note.GNU-stack
                0x0000000000000000        0x0 0x1 /usr/local/popcorn/x86_64/lib/libc.a(scalbn.o)
 .note.GNU-stack
                0x0000000000000000        0x0 0x1 /usr/local/popcorn/x86_64/lib/libc.a(scalbnl.o)
 .note.GNU-stack
                0x0000000000000000        0x0 0x1 /usr/local/popcorn/x86_64/lib/libc.a(fabs.o)
 .note.GNU-stack
                0x0000000000000000        0x0 0x1 /usr/local/popcorn/x86_64/lib/libc.a(fmodl.o)
 .note.GNU-stack
                0x0000000000000000        0x0 0x1 /usr/local/popcorn/x86_64/lib/libc.a(mbrtowc.o)
 .note.GNU-stack
                0x0000000000000000        0x0 0x1 /usr/local/popcorn/x86_64/lib/libc.a(mbsinit.o)
 .note.GNU-stack
                0x0000000000000000        0x0 0x1 /usr/local/popcorn/x86_64/lib/libc.a(block.o)
 .note.GNU-stack
                0x0000000000000000        0x0 0x1 /usr/local/popcorn/x86_64/lib/libc.a(raise.o)
 .note.GNU-stack
                0x0000000000000000        0x0 0x1 /usr/local/popcorn/x86_64/lib/libc.a(__fdopen.o)
 .note.GNU-stack
                0x0000000000000000        0x0 0x1 /usr/local/popcorn/x86_64/lib/libc.a(__fmodeflags.o)
 .note.GNU-stack
                0x0000000000000000        0x0 0x1 /usr/local/popcorn/x86_64/lib/libc.a(__stdio_read.o)
 .note.GNU-stack
                0x0000000000000000        0x0 0x1 /usr/local/popcorn/x86_64/lib/libc.a(__string_read.o)
 .note.GNU-stack
                0x0000000000000000        0x0 0x1 /usr/local/popcorn/x86_64/lib/libc.a(__uflow.o)
 .note.GNU-stack
                0x0000000000000000        0x0 0x1 /usr/local/popcorn/x86_64/lib/libc.a(fputc.o)
 .note.GNU-stack
                0x0000000000000000        0x0 0x1 /usr/local/popcorn/x86_64/lib/libc.a(getdelim.o)
 .note.GNU-stack
                0x0000000000000000        0x0 0x1 /usr/local/popcorn/x86_64/lib/libc.a(ofl_add.o)
 .note.GNU-stack
                0x0000000000000000        0x0 0x1 /usr/local/popcorn/x86_64/lib/libc.a(internal.o)
 .note.GNU-stack
                0x0000000000000000        0x0 0x1 /usr/local/popcorn/x86_64/lib/libc.a(__overflow.o)
 .note.GNU-stack
                0x0000000000000000        0x0 0x1 /usr/local/popcorn/x86_64/lib/libc.a(__toread.o)

Memory map

 ** file header
                0x00000000004ff000       0x40
 ** segment headers
                0x00000000004ff040      0x230

.text           0x0000000000500000    0x1f790
 ** zero fill   0x0000000000500000        0x1
 ** zero fill   0x0000000000500001      0xfff
 .text.exit     0x0000000000501000       0x1d 0x1 /usr/local/popcorn/x86_64/lib/libc.a(exit.o)
                0x0000000000501000                exit
 ** zero fill   0x000000000050101d        0x7
 ** zero fill   0x0000000000501024        0xc
 .text.main     0x0000000000501030       0x73 0x10 popcorn-hello_x86_64.o
                0x0000000000501030                main
 ** zero fill   0x00000000005010a3       0x1d
 .text._start_c
                0x00000000005010c0       0x1f 0x1 /usr/local/popcorn/x86_64/lib/crt1.o
                0x00000000005010c0                _start_c
 ** zero fill   0x00000000005010df       0x15
 .text.dummy    0x00000000005010f4        0x1 0x1 /usr/local/popcorn/x86_64/lib/libc.a(__libc_start_main.o)
                0x00000000005010f4                _init
 ** zero fill   0x00000000005010f5        0x3
 .text.dummy1   0x00000000005010f8        0x1 0x1 /usr/local/popcorn/x86_64/lib/libc.a(__libc_start_main.o)
                0x00000000005010f8                __init_ssp
 ** zero fill   0x00000000005010f9        0x3
 .text.__init_libc
                0x00000000005010fc      0x1a3 0x1 /usr/local/popcorn/x86_64/lib/libc.a(__libc_start_main.o)
                0x00000000005010fc                __init_libc
 ** zero fill   0x000000000050129f       0x35
 .text.libc_start_init
                0x00000000005012d4       0x31 0x1 /usr/local/popcorn/x86_64/lib/libc.a(__libc_start_main.o)
                0x00000000005012d4                __libc_start_init
 ** zero fill   0x0000000000501305        0xf
 .text.__libc_start_main
                0x0000000000501314       0x43 0x1 /usr/local/popcorn/x86_64/lib/libc.a(__libc_start_main.o)
                0x0000000000501314                __libc_start_main
 ** zero fill   0x0000000000501357        0xd
 .text.libc_exit_fini
                0x0000000000501364       0x35 0x1 /usr/local/popcorn/x86_64/lib/libc.a(exit.o)
                0x0000000000501364                __libc_exit_fini
 ** zero fill   0x0000000000501399        0x7
 .text.dummy    0x00000000005013a0        0x1 0x1 /usr/local/popcorn/x86_64/lib/libc.a(exit.o)
                0x00000000005013a0                __funcs_on_exit
                0x00000000005013a0                _fini
 ** zero fill   0x00000000005013a1        0x3
 .text.printf   0x00000000005013a4       0xa9 0x1 /usr/local/popcorn/x86_64/lib/libc.a(printf.o)
                0x00000000005013a4                printf
 ** zero fill   0x000000000050144d        0x3
 .text.vfprintf
                0x0000000000501450      0x1ba 0x1 /usr/local/popcorn/x86_64/lib/libc.a(vfprintf.o)
                0x0000000000501450                vfprintf
 ** zero fill   0x000000000050160a        0x2
 .text.printf_core
                0x000000000050160c     0x1e06 0x1 /usr/local/popcorn/x86_64/lib/libc.a(vfprintf.o)
 ** zero fill   0x0000000000503412        0x2
 .text.getint   0x0000000000503414       0x54 0x1 /usr/local/popcorn/x86_64/lib/libc.a(vfprintf.o)
 ** zero fill   0x0000000000503468       0x20
 .text.pop_arg  0x0000000000503488      0x1a6 0x1 /usr/local/popcorn/x86_64/lib/libc.a(vfprintf.o)
 ** zero fill   0x000000000050362e       0xd6
 .text.pad      0x0000000000503704       0xbd 0x1 /usr/local/popcorn/x86_64/lib/libc.a(vfprintf.o)
 ** zero fill   0x00000000005037c1        0x7
 ** zero fill   0x00000000005037c8        0x8
 .text.strnlen  0x00000000005037d0       0x2c 0x10 /usr/local/popcorn/x86_64/lib/libc.a(strnlen.o)
                0x00000000005037d0                strnlen
 ** zero fill   0x00000000005037fc        0xc
 .text.memset   0x0000000000503808       0xc4 0x1 /usr/local/popcorn/x86_64/lib/libc.a(memset.o)
                0x0000000000503808                memset
 ** zero fill   0x00000000005038cc       0x94
 .text.__init_tp
                0x0000000000503960       0x4e 0x1 /usr/local/popcorn/x86_64/lib/libc.a(__init_tls.o)
                0x0000000000503960                __init_tp
 ** zero fill   0x00000000005039ae       0x26
 .text.__copy_tls
                0x00000000005039d4       0x9e 0x1 /usr/local/popcorn/x86_64/lib/libc.a(__init_tls.o)
                0x00000000005039d4                __copy_tls
 ** zero fill   0x0000000000503a72        0x2
 .text.static_init_tls
                0x0000000000503a74      0x144 0x1 /usr/local/popcorn/x86_64/lib/libc.a(__init_tls.o)
                0x0000000000503a74                __init_tls
 ** zero fill   0x0000000000503bb8       0x14
 .text.__errno_location
                0x0000000000503bcc        0xe 0x1 /usr/local/popcorn/x86_64/lib/libc.a(__errno_location.o)
                0x0000000000503bcc                __errno_location
 ** zero fill   0x0000000000503bda        0x2
 .text.__strerror_l
                0x0000000000503bdc       0x44 0x1 /usr/local/popcorn/x86_64/lib/libc.a(strerror.o)
                0x0000000000503bdc                __strerror_l
                0x0000000000503bdc                strerror_l
 ** zero fill   0x0000000000503c20       0x1c
 .text.strerror
                0x0000000000503c3c       0x15 0x1 /usr/local/popcorn/x86_64/lib/libc.a(strerror.o)
                0x0000000000503c3c                strerror
 ** zero fill   0x0000000000503c51        0x3
 .text._Exit    0x0000000000503c54       0x13 0x1 /usr/local/popcorn/x86_64/lib/libc.a(_Exit.o)
                0x0000000000503c54                _Exit
 ** zero fill   0x0000000000503c67        0xd
 .text.dummy    0x0000000000503c74        0x4 0x1 /usr/local/popcorn/x86_64/lib/libc.a(__lctrans.o)
                0x0000000000503c74                __lctrans_impl
 .text.__lctrans
                0x0000000000503c78        0x5 0x1 /usr/local/popcorn/x86_64/lib/libc.a(__lctrans.o)
                0x0000000000503c78                __lctrans
 ** zero fill   0x0000000000503c7d        0x3
 .text.__lctrans_cur
                0x0000000000503c80       0x19 0x1 /usr/local/popcorn/x86_64/lib/libc.a(__lctrans.o)
                0x0000000000503c80                __lctrans_cur
 ** zero fill   0x0000000000503c99        0x3
 .text.__fpclassifyl
                0x0000000000503c9c       0x55 0x1 /usr/local/popcorn/x86_64/lib/libc.a(__fpclassifyl.o)
                0x0000000000503c9c                __fpclassifyl
 ** zero fill   0x0000000000503cf1        0x3
 .text.__signbitl
                0x0000000000503cf4        0xa 0x1 /usr/local/popcorn/x86_64/lib/libc.a(__signbitl.o)
                0x0000000000503cf4                __signbitl
 ** zero fill   0x0000000000503cfe        0xe
 .text.frexpl   0x0000000000503d0c       0x80 0x1 /usr/local/popcorn/x86_64/lib/libc.a(frexpl.o)
                0x0000000000503d0c                frexpl
 ** zero fill   0x0000000000503d8c       0x34
 .text.wctomb   0x0000000000503dc0       0x11 0x1 /usr/local/popcorn/x86_64/lib/libc.a(wctomb.o)
                0x0000000000503dc0                wctomb
 ** zero fill   0x0000000000503dd1       0x13
 .text.__lockfile
                0x0000000000503de4       0x72 0x1 /usr/local/popcorn/x86_64/lib/libc.a(__lockfile.o)
                0x0000000000503de4                __lockfile
 ** zero fill   0x0000000000503e56        0x2
 .text.__unlockfile
                0x0000000000503e58       0x46 0x1 /usr/local/popcorn/x86_64/lib/libc.a(__lockfile.o)
                0x0000000000503e58                __unlockfile
 ** zero fill   0x0000000000503e9e        0x6
 .text.dummy    0x0000000000503ea4        0x3 0x1 /usr/local/popcorn/x86_64/lib/libc.a(__stdio_close.o)
                0x0000000000503ea4                __aio_close
 ** zero fill   0x0000000000503ea7        0x1
 .text.__stdio_close
                0x0000000000503ea8       0x1c 0x1 /usr/local/popcorn/x86_64/lib/libc.a(__stdio_close.o)
                0x0000000000503ea8                __stdio_close
 ** zero fill   0x0000000000503ec4        0xc
 .text.__stdio_seek
                0x0000000000503ed0       0x16 0x1 /usr/local/popcorn/x86_64/lib/libc.a(__stdio_seek.o)
                0x0000000000503ed0                __stdio_seek
 ** zero fill   0x0000000000503ee6        0x2
 .text.__stdout_write
                0x0000000000503ee8       0x49 0x1 /usr/local/popcorn/x86_64/lib/libc.a(__stdout_write.o)
                0x0000000000503ee8                __stdout_write
 ** zero fill   0x0000000000503f31       0x1f
 .text.__fwritex
                0x0000000000503f50       0xc1 0x1 /usr/local/popcorn/x86_64/lib/libc.a(fwrite.o)
                0x0000000000503f50                __fwritex
 ** zero fill   0x0000000000504011       0x33
 .text.fwrite   0x0000000000504044       0x8c 0x1 /usr/local/popcorn/x86_64/lib/libc.a(fwrite.o)
                0x0000000000504044                fwrite
                0x0000000000504044                fwrite_unlocked
 ** zero fill   0x00000000005040d0       0x10
 .text.memchr   0x00000000005040e0       0xe0 0x10 /usr/local/popcorn/x86_64/lib/libc.a(memchr.o)
                0x00000000005040e0                memchr
 .text.memcpy   0x00000000005041c0       0x32 0x1 /usr/local/popcorn/x86_64/lib/libc.a(memcpy.o)
                0x00000000005041c0                __memcpy_fwd
                0x00000000005041c0                memcpy
 ** zero fill   0x00000000005041f2      0x3ae
 .text.__wait   0x00000000005045a0       0x76 0x1 /usr/local/popcorn/x86_64/lib/libc.a(__wait.o)
                0x00000000005045a0                __wait
 ** zero fill   0x0000000000504616       0x4e
 ** zero fill   0x0000000000504664        0xc
 .text.__set_thread_area
                0x0000000000504670       0x10 0x1 /usr/local/popcorn/x86_64/lib/libc.a(__set_thread_area.o)
                0x0000000000504670                __set_thread_area
 .text.__syscall_ret
                0x0000000000504680       0x22 0x10 /usr/local/popcorn/x86_64/lib/libc.a(syscall_ret.o)
                0x0000000000504680                __syscall_ret
 ** zero fill   0x00000000005046a2        0xe
 .text.wcrtomb  0x00000000005046b0      0x118 0x1 /usr/local/popcorn/x86_64/lib/libc.a(wcrtomb.o)
                0x00000000005046b0                wcrtomb
 .text.__stdio_write
                0x00000000005047c8      0x116 0x1 /usr/local/popcorn/x86_64/lib/libc.a(__stdio_write.o)
                0x00000000005047c8                __stdio_write
 ** zero fill   0x00000000005048de       0x22
 .text.__towrite
                0x0000000000504900       0x41 0x1 /usr/local/popcorn/x86_64/lib/libc.a(__towrite.o)
                0x0000000000504900                __towrite
 ** zero fill   0x0000000000504941        0xf
 .text.__towrite_needs_stdio_exit
                0x0000000000504950        0x5 0x1 /usr/local/popcorn/x86_64/lib/libc.a(__towrite.o)
                0x0000000000504950                __towrite_needs_stdio_exit
 ** zero fill   0x0000000000504955        0x3
 .text.__stdio_exit
                0x0000000000504958       0x35 0x1 /usr/local/popcorn/x86_64/lib/libc.a(__stdio_exit.o)
                0x0000000000504958                __stdio_exit
                0x0000000000504958                __stdio_exit_needed
 ** zero fill   0x000000000050498d       0x13
 .text.close_file
                0x00000000005049a0       0x45 0x1 /usr/local/popcorn/x86_64/lib/libc.a(__stdio_exit.o)
 ** zero fill   0x00000000005049e5       0x2b
 .text.__ofl_lock
                0x0000000000504a10       0x12 0x1 /usr/local/popcorn/x86_64/lib/libc.a(ofl.o)
                0x0000000000504a10                __ofl_lock
 ** zero fill   0x0000000000504a22       0x12
 .text.__ofl_unlock
                0x0000000000504a34        0xa 0x1 /usr/local/popcorn/x86_64/lib/libc.a(ofl.o)
                0x0000000000504a34                __ofl_unlock
 ** zero fill   0x0000000000504a3e        0x2
 .text.__lock   0x0000000000504a40       0x47 0x1 /usr/local/popcorn/x86_64/lib/libc.a(__lock.o)
                0x0000000000504a40                __lock
 ** zero fill   0x0000000000504a87       0x1d
 .text.__unlock
                0x0000000000504aa4       0x3d 0x1 /usr/local/popcorn/x86_64/lib/libc.a(__lock.o)
                0x0000000000504aa4                __unlock
 ** zero fill   0x0000000000504ae1       0x17
 ** zero fill   0x0000000000504af8        0x8
 .text.node_available
                0x0000000000504b00       0x27 0x10 /usr/local/popcorn/x86_64/lib/libmigrate.a(migrate.o)
                0x0000000000504b00                node_available
 ** zero fill   0x0000000000504b27        0x9
 .text.total_act_nodes
                0x0000000000504b30       0x92 0x10 /usr/local/popcorn/x86_64/lib/libmigrate.a(migrate.o)
                0x0000000000504b30                total_act_nodes
 ** zero fill   0x0000000000504bc2        0xe
 .text.current_arch
                0x0000000000504bd0       0x37 0x10 /usr/local/popcorn/x86_64/lib/libmigrate.a(migrate.o)
                0x0000000000504bd0                current_arch
 ** zero fill   0x0000000000504c07        0xd
 ** zero fill   0x0000000000504c14        0xc
 .text.current_nid
                0x0000000000504c20        0xd 0x10 /usr/local/popcorn/x86_64/lib/libmigrate.a(migrate.o)
                0x0000000000504c20                current_nid
 ** zero fill   0x0000000000504c2d        0x7
 ** zero fill   0x0000000000504c34        0xc
 .text.__init_nodes_info
                0x0000000000504c40       0x2b 0x10 /usr/local/popcorn/x86_64/lib/libmigrate.a(migrate.o)
                0x0000000000504c40                __init_nodes_info
 ** zero fill   0x0000000000504c6b        0x9
 ** zero fill   0x0000000000504c74        0xc
 .text.__migrate_shim_internal
                0x0000000000504c80      0x594 0x10 /usr/local/popcorn/x86_64/lib/libmigrate.a(migrate.o)
                0x0000000000504c80                __migrate_shim_internal
 ** zero fill   0x0000000000505214        0xc
 .text.check_migrate
                0x0000000000505220       0x58 0x10 /usr/local/popcorn/x86_64/lib/libmigrate.a(migrate.o)
                0x0000000000505220                check_migrate
 ** zero fill   0x0000000000505278       0x10
 ** zero fill   0x0000000000505288        0x8
 .text.migrate  0x0000000000505290       0x39 0x10 /usr/local/popcorn/x86_64/lib/libmigrate.a(migrate.o)
                0x0000000000505290                migrate
 ** zero fill   0x00000000005052c9        0xf
 ** zero fill   0x00000000005052d8        0x8
 .text.migrate_schedule
                0x00000000005052e0       0x3e 0x10 /usr/local/popcorn/x86_64/lib/libmigrate.a(migrate.o)
                0x00000000005052e0                migrate_schedule
 ** zero fill   0x000000000050531e        0xe
 ** zero fill   0x000000000050532c        0x4
 .text.get_call_site
                0x0000000000505330        0xa 0x10 /usr/local/popcorn/x86_64/lib/libmigrate.a(migrate.o)
 ** zero fill   0x000000000050533a        0x6
 .text.clear_migrate_flag
                0x0000000000505340       0x11 0x10 /usr/local/popcorn/x86_64/lib/libmigrate.a(trigger.o)
                0x0000000000505340                clear_migrate_flag
 ** zero fill   0x0000000000505351        0x3
 ** zero fill   0x0000000000505354        0xc
 .text.__register_migrate_sighandler
                0x0000000000505360       0x71 0x10 /usr/local/popcorn/x86_64/lib/libmigrate.a(trigger.o)
 ** zero fill   0x00000000005053d1        0xf
 .text.__migrate_sighandler
                0x00000000005053e0       0x58 0x10 /usr/local/popcorn/x86_64/lib/libmigrate.a(trigger.o)
 ** zero fill   0x0000000000505438        0x4
 .text.__migrate_fixup_x86_64
                0x000000000050543c       0x69 0x1 /usr/local/popcorn/x86_64/lib/libmigrate.a(migrate_x86_64.o)
                0x000000000050543c                __migrate_fixup_x86_64
 ** zero fill   0x00000000005054a5        0xb
 .text.__migrate_fixup_aarch64
                0x00000000005054b0        0x0 0x4 /usr/local/popcorn/x86_64/lib/libmigrate.a(migrate_aarch64.o)
                0x00000000005054b0                __migrate_fixup_aarch64
 ** zero fill   0x00000000005054b0       0x7c
 ** zero fill   0x000000000050552c        0x4
 .text.__migrate_fixup_powerpc64
                0x0000000000505530        0x0 0x4 /usr/local/popcorn/x86_64/lib/libmigrate.a(migrate_powerpc64.o)
                0x0000000000505530                __migrate_fixup_powerpc64
 .text.set_default_node
                0x0000000000505530        0xd 0x10 /usr/local/popcorn/x86_64/lib/libmigrate.a(mapping.o)
                0x0000000000505530                set_default_node
 ** zero fill   0x000000000050553d        0x3
 .text.cleanup  0x0000000000505540       0x9c 0x10 /usr/local/popcorn/x86_64/lib/libmigrate.a(mapping.o)
 ** zero fill   0x00000000005055dc       0x10
 ** zero fill   0x00000000005055ec        0x4
 .text.region_compare
                0x00000000005055f0       0x27 0x10 /usr/local/popcorn/x86_64/lib/libmigrate.a(mapping.o)
                0x00000000005055f0                region_compare
 ** zero fill   0x0000000000505617        0x1
 ** zero fill   0x0000000000505618        0x8
 .text.read_mapping_schedule
                0x0000000000505620      0x343 0x10 /usr/local/popcorn/x86_64/lib/libmigrate.a(mapping.o)
 ** zero fill   0x0000000000505963       0x1d
 .text.region_find
                0x0000000000505980       0x27 0x10 /usr/local/popcorn/x86_64/lib/libmigrate.a(mapping.o)
                0x0000000000505980                region_find
 ** zero fill   0x00000000005059a7        0x1
 ** zero fill   0x00000000005059a8        0x8
 .text.get_node_mapping
                0x00000000005059b0       0x86 0x10 /usr/local/popcorn/x86_64/lib/libmigrate.a(mapping.o)
                0x00000000005059b0                get_node_mapping
 ** zero fill   0x0000000000505a36       0x12
 ** zero fill   0x0000000000505a48        0x8
 .text.__st_userspace_ctor
                0x0000000000505a50      0x3a1 0x10 /usr/local/popcorn/x86_64/lib/libstack-transform.a(userspace.o)
                0x0000000000505a50                __st_userspace_ctor
 ** zero fill   0x0000000000505df1        0xf
 .text.__st_userspace_dtor
                0x0000000000505e00       0x8e 0x10 /usr/local/popcorn/x86_64/lib/libstack-transform.a(userspace.o)
                0x0000000000505e00                __st_userspace_dtor
 ** zero fill   0x0000000000505e8e        0xa
 ** zero fill   0x0000000000505e98        0x8
 .text.get_stack_bounds
                0x0000000000505ea0       0xc2 0x10 /usr/local/popcorn/x86_64/lib/libstack-transform.a(userspace.o)
                0x0000000000505ea0                get_stack_bounds
 ** zero fill   0x0000000000505f62       0x22
 ** zero fill   0x0000000000505f84        0xc
 .text.st_userspace_rewrite
                0x0000000000505f90      0x15d 0x10 /usr/local/popcorn/x86_64/lib/libstack-transform.a(userspace.o)
                0x0000000000505f90                st_userspace_rewrite
 ** zero fill   0x00000000005060ed       0x17
 ** zero fill   0x0000000000506104        0xc
 .text.__st_ctor
                0x0000000000506110        0x5 0x10 /usr/local/popcorn/x86_64/lib/libstack-transform.a(init.o)
 ** zero fill   0x0000000000506115        0xb
 .text.__st_dtor
                0x0000000000506120        0x5 0x10 /usr/local/popcorn/x86_64/lib/libstack-transform.a(init.o)
                0x0000000000506120                __st_dtor
 ** zero fill   0x0000000000506125        0xb
 .text.st_init  0x0000000000506130      0x212 0x10 /usr/local/popcorn/x86_64/lib/libstack-transform.a(init.o)
                0x0000000000506130                st_init
 ** zero fill   0x0000000000506342        0xe
 .text.st_destroy
                0x0000000000506350       0x24 0x10 /usr/local/popcorn/x86_64/lib/libstack-transform.a(init.o)
                0x0000000000506350                st_destroy
 ** zero fill   0x0000000000506374       0x1c
 .text.st_rewrite_stack
                0x0000000000506390      0x7c6 0x10 /usr/local/popcorn/x86_64/lib/libstack-transform.a(rewrite.o)
                0x0000000000506390                st_rewrite_stack
 ** zero fill   0x0000000000506b56        0xa
 .text.rewrite_frame
                0x0000000000506b60      0x482 0x10 /usr/local/popcorn/x86_64/lib/libstack-transform.a(rewrite.o)
 ** zero fill   0x0000000000506fe2       0x36
 ** zero fill   0x0000000000507018        0x8
 .text.st_rewrite_ondemand
                0x0000000000507020       0x26 0x10 /usr/local/popcorn/x86_64/lib/libstack-transform.a(rewrite.o)
                0x0000000000507020                st_rewrite_ondemand
 ** zero fill   0x0000000000507046        0x6
 ** zero fill   0x000000000050704c        0x4
 .text.rewrite_val
                0x0000000000507050      0x2ad 0x10 /usr/local/popcorn/x86_64/lib/libstack-transform.a(rewrite.o)
 ** zero fill   0x00000000005072fd       0xc3
 .text.first_frame
                0x00000000005073c0        0x8 0x10 /usr/local/popcorn/x86_64/lib/libstack-transform.a(unwind.o)
                0x00000000005073c0                first_frame
 ** zero fill   0x00000000005073c8        0x4
 ** zero fill   0x00000000005073cc        0x4
 .text.calculate_cfa
                0x00000000005073d0       0x2d 0x10 /usr/local/popcorn/x86_64/lib/libstack-transform.a(unwind.o)
                0x00000000005073d0                calculate_cfa
 ** zero fill   0x00000000005073fd       0x13
 .text.bootstrap_first_frame
                0x0000000000507410       0x2d 0x10 /usr/local/popcorn/x86_64/lib/libstack-transform.a(unwind.o)
                0x0000000000507410                bootstrap_first_frame
 ** zero fill   0x000000000050743d        0x7
 ** zero fill   0x0000000000507444        0xc
 .text.bootstrap_first_frame_funcentry
                0x0000000000507450       0x4b 0x10 /usr/local/popcorn/x86_64/lib/libstack-transform.a(unwind.o)
                0x0000000000507450                bootstrap_first_frame_funcentry
 ** zero fill   0x000000000050749b       0x19
 ** zero fill   0x00000000005074b4        0xc
 .text.pop_frame
                0x00000000005074c0      0x1ee 0x10 /usr/local/popcorn/x86_64/lib/libstack-transform.a(unwind.o)
                0x00000000005074c0                pop_frame
 ** zero fill   0x00000000005076ae       0x6a
 ** zero fill   0x0000000000507718        0x8
 .text.pop_frame_funcentry
                0x0000000000507720      0x13e 0x10 /usr/local/popcorn/x86_64/lib/libstack-transform.a(unwind.o)
                0x0000000000507720                pop_frame_funcentry
 ** zero fill   0x000000000050785e       0x5a
 ** zero fill   0x00000000005078b8        0x8
 .text.get_register_save_loc
                0x00000000005078c0       0x61 0x10 /usr/local/popcorn/x86_64/lib/libstack-transform.a(unwind.o)
                0x00000000005078c0                get_register_save_loc
 ** zero fill   0x0000000000507921       0x23
 ** zero fill   0x0000000000507944        0xc
 .text.clear_activation
                0x0000000000507950       0x48 0x10 /usr/local/popcorn/x86_64/lib/libstack-transform.a(unwind.o)
                0x0000000000507950                clear_activation
 ** zero fill   0x0000000000507998        0x4
 ** zero fill   0x000000000050799c        0x4
 .text.arch_name
                0x00000000005079a0       0x29 0x10 /usr/local/popcorn/x86_64/lib/libstack-transform.a(util.o)
                0x00000000005079a0                arch_name
 ** zero fill   0x00000000005079c9       0x23
 ** zero fill   0x00000000005079ec        0x4
 .text.get_regops
                0x00000000005079f0       0x26 0x10 /usr/local/popcorn/x86_64/lib/libstack-transform.a(util.o)
                0x00000000005079f0                get_regops
 ** zero fill   0x0000000000507a16       0x22
 ** zero fill   0x0000000000507a38        0x8
 .text.get_properties
                0x0000000000507a40       0x26 0x10 /usr/local/popcorn/x86_64/lib/libstack-transform.a(util.o)
                0x0000000000507a40                get_properties
 ** zero fill   0x0000000000507a66       0x22
 ** zero fill   0x0000000000507a88        0x8
 .text.get_section
                0x0000000000507a90       0xae 0x10 /usr/local/popcorn/x86_64/lib/libstack-transform.a(util.o)
                0x0000000000507a90                get_section
 ** zero fill   0x0000000000507b3e       0x12
 .text.get_num_entries
                0x0000000000507b50       0x4f 0x10 /usr/local/popcorn/x86_64/lib/libstack-transform.a(util.o)
                0x0000000000507b50                get_num_entries
 ** zero fill   0x0000000000507b9f       0x15
 ** zero fill   0x0000000000507bb4        0xc
 .text.get_section_data
                0x0000000000507bc0       0x26 0x10 /usr/local/popcorn/x86_64/lib/libstack-transform.a(util.o)
                0x0000000000507bc0                get_section_data
 ** zero fill   0x0000000000507be6       0x16
 ** zero fill   0x0000000000507bfc        0x4
 .text.get_site_by_addr
                0x0000000000507c00       0x7a 0x10 /usr/local/popcorn/x86_64/lib/libstack-transform.a(util.o)
                0x0000000000507c00                get_site_by_addr
 ** zero fill   0x0000000000507c7a       0x2a
 ** zero fill   0x0000000000507ca4        0xc
 .text.get_site_by_id
                0x0000000000507cb0       0x70 0x10 /usr/local/popcorn/x86_64/lib/libstack-transform.a(util.o)
                0x0000000000507cb0                get_site_by_id
 ** zero fill   0x0000000000507d20       0x20
 .text.get_unwind_offset_by_addr
                0x0000000000507d40       0x8c 0x10 /usr/local/popcorn/x86_64/lib/libstack-transform.a(util.o)
                0x0000000000507d40                get_unwind_offset_by_addr
 ** zero fill   0x0000000000507dcc       0x28
 ** zero fill   0x0000000000507df4        0xc
 .text.get_function_address
                0x0000000000507e00       0x80 0x10 /usr/local/popcorn/x86_64/lib/libstack-transform.a(util.o)
                0x0000000000507e00                get_function_address
 ** zero fill   0x0000000000507e80        0x8
 ** zero fill   0x0000000000507e88        0x8
 .text.align_sp_aarch64
                0x0000000000507e90        0xc 0x10 /usr/local/popcorn/x86_64/lib/libstack-transform.a(properties.o)
 ** zero fill   0x0000000000507e9c        0x4
 .text.is_callee_saved_aarch64
                0x0000000000507ea0       0x1f 0x10 /usr/local/popcorn/x86_64/lib/libstack-transform.a(properties.o)
 ** zero fill   0x0000000000507ebf       0x11
 .text.callee_reg_size_aarch64
                0x0000000000507ed0       0x41 0x10 /usr/local/popcorn/x86_64/lib/libstack-transform.a(properties.o)
 ** zero fill   0x0000000000507f11       0x17
 ** zero fill   0x0000000000507f28        0x8
 .text.regset_default_aarch64
                0x0000000000507f30        0xf 0x10 /usr/local/popcorn/x86_64/lib/libstack-transform.a(regs.o)
 ** zero fill   0x0000000000507f3f        0x1
 .text.regset_init_aarch64
                0x0000000000507f40       0x2f 0x10 /usr/local/popcorn/x86_64/lib/libstack-transform.a(regs.o)
 ** zero fill   0x0000000000507f6f        0x9
 ** zero fill   0x0000000000507f78        0x8
 .text.regset_free_aarch64
                0x0000000000507f80        0x5 0x10 /usr/local/popcorn/x86_64/lib/libstack-transform.a(regs.o)
 ** zero fill   0x0000000000507f85        0xb
 .text.regset_clone_aarch64
                0x0000000000507f90       0x13 0x10 /usr/local/popcorn/x86_64/lib/libstack-transform.a(regs.o)
 ** zero fill   0x0000000000507fa3        0x1
 ** zero fill   0x0000000000507fa4        0xc
 .text.regset_copyin_aarch64
                0x0000000000507fb0        0xa 0x10 /usr/local/popcorn/x86_64/lib/libstack-transform.a(regs.o)
 ** zero fill   0x0000000000507fba        0x6
 .text.regset_copyout_aarch64
                0x0000000000507fc0       0x13 0x10 /usr/local/popcorn/x86_64/lib/libstack-transform.a(regs.o)
 ** zero fill   0x0000000000507fd3        0x1
 ** zero fill   0x0000000000507fd4        0xc
 .text.pc_aarch64
                0x0000000000507fe0        0x5 0x10 /usr/local/popcorn/x86_64/lib/libstack-transform.a(regs.o)
 ** zero fill   0x0000000000507fe5        0x3
 ** zero fill   0x0000000000507fe8        0x8
 .text.sp_aarch64
                0x0000000000507ff0        0x4 0x10 /usr/local/popcorn/x86_64/lib/libstack-transform.a(regs.o)
 ** zero fill   0x0000000000507ff4        0x4
 ** zero fill   0x0000000000507ff8        0x8
 .text.fbp_aarch64
                0x0000000000508000        0x8 0x10 /usr/local/popcorn/x86_64/lib/libstack-transform.a(regs.o)
 ** zero fill   0x0000000000508008        0x8
 .text.ra_reg_aarch64
                0x0000000000508010        0x8 0x10 /usr/local/popcorn/x86_64/lib/libstack-transform.a(regs.o)
 ** zero fill   0x0000000000508018        0x8
 .text.set_pc_aarch64
                0x0000000000508020        0x5 0x10 /usr/local/popcorn/x86_64/lib/libstack-transform.a(regs.o)
 ** zero fill   0x0000000000508025        0x3
 ** zero fill   0x0000000000508028        0x8
 .text.set_sp_aarch64
                0x0000000000508030        0x4 0x10 /usr/local/popcorn/x86_64/lib/libstack-transform.a(regs.o)
 ** zero fill   0x0000000000508034        0x4
 ** zero fill   0x0000000000508038        0x8
 .text.set_fbp_aarch64
                0x0000000000508040        0x8 0x10 /usr/local/popcorn/x86_64/lib/libstack-transform.a(regs.o)
 ** zero fill   0x0000000000508048        0x8
 .text.set_ra_reg_aarch64
                0x0000000000508050        0x8 0x10 /usr/local/popcorn/x86_64/lib/libstack-transform.a(regs.o)
 ** zero fill   0x0000000000508058        0x8
 .text.setup_fbp_aarch64
                0x0000000000508060        0xc 0x10 /usr/local/popcorn/x86_64/lib/libstack-transform.a(regs.o)
 ** zero fill   0x000000000050806c        0x4
 .text.reg_size_aarch64
                0x0000000000508070       0x3c 0x10 /usr/local/popcorn/x86_64/lib/libstack-transform.a(regs.o)
 ** zero fill   0x00000000005080ac       0x18
 ** zero fill   0x00000000005080c4        0xc
 .text.reg_aarch64
                0x00000000005080d0      0x2cb 0x10 /usr/local/popcorn/x86_64/lib/libstack-transform.a(regs.o)
 ** zero fill   0x000000000050839b       0x6d
 ** zero fill   0x0000000000508408        0x8
 .text.align_sp_powerpc64
                0x0000000000508410       0x14 0x10 /usr/local/popcorn/x86_64/lib/libstack-transform.a(properties.o)
 ** zero fill   0x0000000000508424        0xc
 .text.is_callee_saved_powerpc64
                0x0000000000508430       0x13 0x10 /usr/local/popcorn/x86_64/lib/libstack-transform.a(properties.o)
 ** zero fill   0x0000000000508443       0x19
 ** zero fill   0x000000000050845c        0x4
 .text.callee_reg_size_powerpc64
                0x0000000000508460       0x38 0x10 /usr/local/popcorn/x86_64/lib/libstack-transform.a(properties.o)
 ** zero fill   0x0000000000508498       0x18
 .text.regset_default_powerpc64
                0x00000000005084b0        0xf 0x10 /usr/local/popcorn/x86_64/lib/libstack-transform.a(regs.o)
 ** zero fill   0x00000000005084bf        0x1
 .text.regset_init_powerpc64
                0x00000000005084c0       0x2f 0x10 /usr/local/popcorn/x86_64/lib/libstack-transform.a(regs.o)
 ** zero fill   0x00000000005084ef        0x9
 ** zero fill   0x00000000005084f8        0x8
 .text.regset_free_powerpc64
                0x0000000000508500        0x5 0x10 /usr/local/popcorn/x86_64/lib/libstack-transform.a(regs.o)
 ** zero fill   0x0000000000508505        0xb
 .text.regset_clone_powerpc64
                0x0000000000508510       0x13 0x10 /usr/local/popcorn/x86_64/lib/libstack-transform.a(regs.o)
 ** zero fill   0x0000000000508523        0x1
 ** zero fill   0x0000000000508524        0xc
 .text.regset_copyin_powerpc64
                0x0000000000508530        0xa 0x10 /usr/local/popcorn/x86_64/lib/libstack-transform.a(regs.o)
 ** zero fill   0x000000000050853a        0x6
 .text.regset_copyout_powerpc64
                0x0000000000508540       0x13 0x10 /usr/local/popcorn/x86_64/lib/libstack-transform.a(regs.o)
 ** zero fill   0x0000000000508553        0x1
 ** zero fill   0x0000000000508554        0xc
 .text.pc_powerpc64
                0x0000000000508560        0x4 0x10 /usr/local/popcorn/x86_64/lib/libstack-transform.a(regs.o)
 ** zero fill   0x0000000000508564        0x4
 ** zero fill   0x0000000000508568        0x8
 .text.sp_powerpc64
                0x0000000000508570        0x5 0x10 /usr/local/popcorn/x86_64/lib/libstack-transform.a(regs.o)
 ** zero fill   0x0000000000508575        0x3
 ** zero fill   0x0000000000508578        0x8
 .text.fbp_powerpc64
                0x0000000000508580        0x8 0x10 /usr/local/popcorn/x86_64/lib/libstack-transform.a(regs.o)
 ** zero fill   0x0000000000508588        0x8
 .text.ra_reg_powerpc64
                0x0000000000508590        0x5 0x10 /usr/local/popcorn/x86_64/lib/libstack-transform.a(regs.o)
 ** zero fill   0x0000000000508595        0x3
 ** zero fill   0x0000000000508598        0x8
 .text.set_pc_powerpc64
                0x00000000005085a0        0x4 0x10 /usr/local/popcorn/x86_64/lib/libstack-transform.a(regs.o)
 ** zero fill   0x00000000005085a4        0x4
 ** zero fill   0x00000000005085a8        0x8
 .text.set_sp_powerpc64
                0x00000000005085b0        0x5 0x10 /usr/local/popcorn/x86_64/lib/libstack-transform.a(regs.o)
 ** zero fill   0x00000000005085b5        0x3
 ** zero fill   0x00000000005085b8        0x8
 .text.set_fbp_powerpc64
                0x00000000005085c0        0x8 0x10 /usr/local/popcorn/x86_64/lib/libstack-transform.a(regs.o)
 ** zero fill   0x00000000005085c8        0x8
 .text.set_ra_reg_powerpc64
                0x00000000005085d0        0x5 0x10 /usr/local/popcorn/x86_64/lib/libstack-transform.a(regs.o)
 ** zero fill   0x00000000005085d5        0x3
 ** zero fill   0x00000000005085d8        0x8
 .text.setup_fbp_powerpc64
                0x00000000005085e0        0xc 0x10 /usr/local/popcorn/x86_64/lib/libstack-transform.a(regs.o)
 ** zero fill   0x00000000005085ec        0x4
 .text.reg_size_powerpc64
                0x00000000005085f0       0x44 0x10 /usr/local/popcorn/x86_64/lib/libstack-transform.a(regs.o)
 ** zero fill   0x0000000000508634       0x10
 ** zero fill   0x0000000000508644        0xc
 .text.reg_powerpc64
                0x0000000000508650      0x2e9 0x10 /usr/local/popcorn/x86_64/lib/libstack-transform.a(regs.o)
 ** zero fill   0x0000000000508939       0x73
 ** zero fill   0x00000000005089ac        0x4
 .text.align_sp_x86_64
                0x00000000005089b0        0xd 0x10 /usr/local/popcorn/x86_64/lib/libstack-transform.a(properties.o)
 ** zero fill   0x00000000005089bd        0x3
 .text.is_callee_saved_x86_64
                0x00000000005089c0       0x19 0x10 /usr/local/popcorn/x86_64/lib/libstack-transform.a(properties.o)
 ** zero fill   0x00000000005089d9       0x13
 ** zero fill   0x00000000005089ec        0x4
 .text.callee_reg_size_x86_64
                0x00000000005089f0       0x38 0x10 /usr/local/popcorn/x86_64/lib/libstack-transform.a(properties.o)
 ** zero fill   0x0000000000508a28       0x1c
 ** zero fill   0x0000000000508a44        0xc
 .text.regset_default_x86_64
                0x0000000000508a50        0xf 0x10 /usr/local/popcorn/x86_64/lib/libstack-transform.a(regs.o)
 ** zero fill   0x0000000000508a5f        0x1
 .text.regset_init_x86_64
                0x0000000000508a60       0x2f 0x10 /usr/local/popcorn/x86_64/lib/libstack-transform.a(regs.o)
 ** zero fill   0x0000000000508a8f        0x9
 ** zero fill   0x0000000000508a98        0x8
 .text.regset_free_x86_64
                0x0000000000508aa0        0x5 0x10 /usr/local/popcorn/x86_64/lib/libstack-transform.a(regs.o)
 ** zero fill   0x0000000000508aa5        0xb
 .text.regset_clone_x86_64
                0x0000000000508ab0       0x13 0x10 /usr/local/popcorn/x86_64/lib/libstack-transform.a(regs.o)
 ** zero fill   0x0000000000508ac3        0x1
 ** zero fill   0x0000000000508ac4        0xc
 .text.regset_copyin_x86_64
                0x0000000000508ad0        0xa 0x10 /usr/local/popcorn/x86_64/lib/libstack-transform.a(regs.o)
 ** zero fill   0x0000000000508ada        0x6
 .text.regset_copyout_x86_64
                0x0000000000508ae0       0x13 0x10 /usr/local/popcorn/x86_64/lib/libstack-transform.a(regs.o)
 ** zero fill   0x0000000000508af3        0x1
 ** zero fill   0x0000000000508af4        0xc
 .text.pc_x86_64
                0x0000000000508b00        0x4 0x10 /usr/local/popcorn/x86_64/lib/libstack-transform.a(regs.o)
 ** zero fill   0x0000000000508b04        0x4
 ** zero fill   0x0000000000508b08        0x8
 .text.sp_x86_64
                0x0000000000508b10        0x5 0x10 /usr/local/popcorn/x86_64/lib/libstack-transform.a(regs.o)
 ** zero fill   0x0000000000508b15        0x3
 ** zero fill   0x0000000000508b18        0x8
 .text.fbp_x86_64
                0x0000000000508b20        0x5 0x10 /usr/local/popcorn/x86_64/lib/libstack-transform.a(regs.o)
 ** zero fill   0x0000000000508b25        0x3
 ** zero fill   0x0000000000508b28        0x8
 .text.ra_reg_x86_64
                0x0000000000508b30       0x26 0x10 /usr/local/popcorn/x86_64/lib/libstack-transform.a(regs.o)
 ** zero fill   0x0000000000508b56        0x6
 ** zero fill   0x0000000000508b5c        0x4
 .text.set_pc_x86_64
                0x0000000000508b60        0x4 0x10 /usr/local/popcorn/x86_64/lib/libstack-transform.a(regs.o)
 ** zero fill   0x0000000000508b64        0x4
 ** zero fill   0x0000000000508b68        0x8
 .text.set_sp_x86_64
                0x0000000000508b70        0x5 0x10 /usr/local/popcorn/x86_64/lib/libstack-transform.a(regs.o)
 ** zero fill   0x0000000000508b75        0x3
 ** zero fill   0x0000000000508b78        0x8
 .text.set_fbp_x86_64
                0x0000000000508b80        0x5 0x10 /usr/local/popcorn/x86_64/lib/libstack-transform.a(regs.o)
 ** zero fill   0x0000000000508b85        0x3
 ** zero fill   0x0000000000508b88        0x8
 .text.set_ra_reg_x86_64
                0x0000000000508b90       0x26 0x10 /usr/local/popcorn/x86_64/lib/libstack-transform.a(regs.o)
 ** zero fill   0x0000000000508bb6        0x6
 ** zero fill   0x0000000000508bbc        0x4
 .text.setup_fbp_x86_64
                0x0000000000508bc0        0x9 0x10 /usr/local/popcorn/x86_64/lib/libstack-transform.a(regs.o)
 ** zero fill   0x0000000000508bc9        0x3
 ** zero fill   0x0000000000508bcc        0x4
 .text.reg_size_x86_64
                0x0000000000508bd0       0x33 0x10 /usr/local/popcorn/x86_64/lib/libstack-transform.a(regs.o)
 ** zero fill   0x0000000000508c03       0x1d
 .text.reg_x86_64
                0x0000000000508c20      0x154 0x10 /usr/local/popcorn/x86_64/lib/libstack-transform.a(regs.o)
 ** zero fill   0x0000000000508d74       0x70
 ** zero fill   0x0000000000508de4        0xc
 .text.put_val  0x0000000000508df0      0x20d 0x10 /usr/local/popcorn/x86_64/lib/libstack-transform.a(data.o)
                0x0000000000508df0                put_val
 ** zero fill   0x0000000000508ffd       0x47
 ** zero fill   0x0000000000509044        0xc
 .text.get_dest_loc
                0x0000000000509050       0xab 0x10 /usr/local/popcorn/x86_64/lib/libstack-transform.a(data.o)
 ** zero fill   0x00000000005090fb       0x31
 ** zero fill   0x000000000050912c        0x4
 .text.put_val_arch
                0x0000000000509130      0x384 0x10 /usr/local/popcorn/x86_64/lib/libstack-transform.a(data.o)
                0x0000000000509130                put_val_arch
 ** zero fill   0x00000000005094b4       0x84
 ** zero fill   0x0000000000509538        0x8
 .text.put_val_data
                0x0000000000509540       0xeb 0x10 /usr/local/popcorn/x86_64/lib/libstack-transform.a(data.o)
                0x0000000000509540                put_val_data
 ** zero fill   0x000000000050962b       0x29
 ** zero fill   0x0000000000509654        0xc
 .text.points_to_stack
                0x0000000000509660      0x116 0x10 /usr/local/popcorn/x86_64/lib/libstack-transform.a(data.o)
                0x0000000000509660                points_to_stack
 ** zero fill   0x0000000000509776       0x4a
 .text.points_to_data
                0x00000000005097c0      0x146 0x10 /usr/local/popcorn/x86_64/lib/libstack-transform.a(data.o)
                0x00000000005097c0                points_to_data
 ** zero fill   0x0000000000509906       0x4a
 .text.set_return_address
                0x0000000000509950       0x1d 0x10 /usr/local/popcorn/x86_64/lib/libstack-transform.a(data.o)
                0x0000000000509950                set_return_address
 ** zero fill   0x000000000050996d        0x7
 ** zero fill   0x0000000000509974        0xc
 .text.set_return_address_funcentry
                0x0000000000509980       0x39 0x10 /usr/local/popcorn/x86_64/lib/libstack-transform.a(data.o)
                0x0000000000509980                set_return_address_funcentry
 ** zero fill   0x00000000005099b9        0xb
 ** zero fill   0x00000000005099c4        0xc
 .text.get_savedfbp_loc
                0x00000000005099d0       0x6b 0x10 /usr/local/popcorn/x86_64/lib/libstack-transform.a(data.o)
                0x00000000005099d0                get_savedfbp_loc
 ** zero fill   0x0000000000509a3b       0x25
 .text.elf_begin
                0x0000000000509a60      0xa21 0x10 /usr/local/popcorn/x86_64/lib/libelf.a(begin.o)
                0x0000000000509a60                elf_begin
 ** zero fill   0x000000000050a481       0xaf
 .text._elf_check_type
                0x000000000050a530      0x26e 0x10 /usr/local/popcorn/x86_64/lib/libelf.a(begin.o)
 ** zero fill   0x000000000050a79e        0x2
 .text.elf_memory
                0x000000000050a7a0       0x8a 0x10 /usr/local/popcorn/x86_64/lib/libelf.a(begin.o)
                0x000000000050a7a0                elf_memory
 ** zero fill   0x000000000050a82a       0x1e
 ** zero fill   0x000000000050a848        0x8
 .text.gelf_getclass
                0x000000000050a850       0x1c 0x10 /usr/local/popcorn/x86_64/lib/libelf.a(begin.o)
                0x000000000050a850                gelf_getclass
 ** zero fill   0x000000000050a86c        0xc
 ** zero fill   0x000000000050a878        0x8
 .text.elf_end  0x000000000050a880      0x1bc 0x10 /usr/local/popcorn/x86_64/lib/libelf.a(end.o)
                0x000000000050a880                elf_end
 ** zero fill   0x000000000050aa3c        0x4
 .text.elf_getdata
                0x000000000050aa40      0x25e 0x10 /usr/local/popcorn/x86_64/lib/libelf.a(getdata.o)
                0x000000000050aa40                elf_getdata
 ** zero fill   0x000000000050ac9e       0x22
 .text.elf_getident
                0x000000000050acc0       0x63 0x10 /usr/local/popcorn/x86_64/lib/libelf.a(getident.o)
                0x000000000050acc0                elf_getident
 ** zero fill   0x000000000050ad23       0x19
 ** zero fill   0x000000000050ad3c        0x4
 .text.elf_nextscn
                0x000000000050ad40       0x80 0x10 /usr/local/popcorn/x86_64/lib/libelf.a(nextscn.o)
                0x000000000050ad40                elf_nextscn
 ** zero fill   0x000000000050adc0       0x34
 ** zero fill   0x000000000050adf4        0xc
 .text.elf_strptr
                0x000000000050ae00      0x17a 0x10 /usr/local/popcorn/x86_64/lib/libelf.a(strptr.o)
                0x000000000050ae00                elf_strptr
 ** zero fill   0x000000000050af7a       0x36
 .text.elf_version
                0x000000000050afb0       0x5c 0x10 /usr/local/popcorn/x86_64/lib/libelf.a(version.o)
                0x000000000050afb0                elf_version
 ** zero fill   0x000000000050b00c       0x24
 .text._elf_getehdr
                0x000000000050b030       0x5a 0x10 /usr/local/popcorn/x86_64/lib/libelf.a(32.getehdr.o)
                0x000000000050b030                _elf_getehdr
 ** zero fill   0x000000000050b08a       0x2e
 ** zero fill   0x000000000050b0b8        0x8
 .text.elf32_getehdr
                0x000000000050b0c0       0x5b 0x10 /usr/local/popcorn/x86_64/lib/libelf.a(32.getehdr.o)
                0x000000000050b0c0                elf32_getehdr
 ** zero fill   0x000000000050b11b       0x2d
 ** zero fill   0x000000000050b148        0x8
 .text.elf64_getehdr
                0x000000000050b150       0x5b 0x10 /usr/local/popcorn/x86_64/lib/libelf.a(32.getehdr.o)
                0x000000000050b150                elf64_getehdr
 ** zero fill   0x000000000050b1ab       0x2d
 ** zero fill   0x000000000050b1d8        0x8
 .text._elf32_xltsize
                0x000000000050b1e0       0x88 0x10 /usr/local/popcorn/x86_64/lib/libelf.a(32.xlatetof.o)
                0x000000000050b1e0                _elf32_xltsize
 ** zero fill   0x000000000050b268       0x10
 ** zero fill   0x000000000050b278        0x8
 .text.elf32_xlatetom
                0x000000000050b280      0x104 0x10 /usr/local/popcorn/x86_64/lib/libelf.a(32.xlatetof.o)
                0x000000000050b280                elf32_xlatetom
 ** zero fill   0x000000000050b384       0x54
 ** zero fill   0x000000000050b3d8        0x8
 .text.elf32_xlatetof
                0x000000000050b3e0      0x104 0x10 /usr/local/popcorn/x86_64/lib/libelf.a(32.xlatetof.o)
                0x000000000050b3e0                elf32_xlatetof
 ** zero fill   0x000000000050b4e4       0x54
 ** zero fill   0x000000000050b538        0x8
 .text.byte_copy
                0x000000000050b540       0x20 0x10 /usr/local/popcorn/x86_64/lib/libelf.a(32.xlatetof.o)
 ** zero fill   0x000000000050b560      0x164
 ** zero fill   0x000000000050b6c4        0xc
 .text.addr_32L__tom
                0x000000000050b6d0      0x1a3 0x10 /usr/local/popcorn/x86_64/lib/libelf.a(32.xlatetof.o)
 ** zero fill   0x000000000050b873        0xd
 .text.addr_32L__tof
                0x000000000050b880       0xa1 0x10 /usr/local/popcorn/x86_64/lib/libelf.a(32.xlatetof.o)
 ** zero fill   0x000000000050b921        0xf
 .text.dyn_32L11_tom
                0x000000000050b930       0x77 0x10 /usr/local/popcorn/x86_64/lib/libelf.a(32.xlatetof.o)
 ** zero fill   0x000000000050b9a7        0x9
 .text.dyn_32L11_tof
                0x000000000050b9b0       0x63 0x10 /usr/local/popcorn/x86_64/lib/libelf.a(32.xlatetof.o)
 ** zero fill   0x000000000050ba13       0x11
 ** zero fill   0x000000000050ba24        0xc
 .text.ehdr_32L11_tom
                0x000000000050ba30      0x18b 0x10 /usr/local/popcorn/x86_64/lib/libelf.a(32.xlatetof.o)
 ** zero fill   0x000000000050bbbb       0x21
 ** zero fill   0x000000000050bbdc        0x4
 .text.ehdr_32L11_tof
                0x000000000050bbe0      0x131 0x10 /usr/local/popcorn/x86_64/lib/libelf.a(32.xlatetof.o)
 ** zero fill   0x000000000050bd11       0x7b
 ** zero fill   0x000000000050bd8c        0x4
 .text.half_32L__tom
                0x000000000050bd90      0x1b4 0x10 /usr/local/popcorn/x86_64/lib/libelf.a(32.xlatetof.o)
 ** zero fill   0x000000000050bf44        0xc
 .text.half_32L__tof
                0x000000000050bf50      0x1b9 0x10 /usr/local/popcorn/x86_64/lib/libelf.a(32.xlatetof.o)
 ** zero fill   0x000000000050c109        0x7
 .text.off_32L__tom
                0x000000000050c110      0x1a3 0x10 /usr/local/popcorn/x86_64/lib/libelf.a(32.xlatetof.o)
 ** zero fill   0x000000000050c2b3        0xd
 .text.off_32L__tof
                0x000000000050c2c0       0xa1 0x10 /usr/local/popcorn/x86_64/lib/libelf.a(32.xlatetof.o)
 ** zero fill   0x000000000050c361        0xf
 .text.phdr_32L11_tom
                0x000000000050c370      0x147 0x10 /usr/local/popcorn/x86_64/lib/libelf.a(32.xlatetof.o)
 ** zero fill   0x000000000050c4b7        0x5
 ** zero fill   0x000000000050c4bc        0x4
 .text.phdr_32L11_tof
                0x000000000050c4c0       0xf7 0x10 /usr/local/popcorn/x86_64/lib/libelf.a(32.xlatetof.o)
 ** zero fill   0x000000000050c5b7       0x55
 ** zero fill   0x000000000050c60c        0x4
 .text.rela_32L11_tom
                0x000000000050c610       0xbd 0x10 /usr/local/popcorn/x86_64/lib/libelf.a(32.xlatetof.o)
 ** zero fill   0x000000000050c6cd        0x3
 .text.rela_32L11_tof
                0x000000000050c6d0       0x8f 0x10 /usr/local/popcorn/x86_64/lib/libelf.a(32.xlatetof.o)
 ** zero fill   0x000000000050c75f       0x21
 .text.rel_32L11_tom
                0x000000000050c780       0x77 0x10 /usr/local/popcorn/x86_64/lib/libelf.a(32.xlatetof.o)
 ** zero fill   0x000000000050c7f7        0x9
 .text.rel_32L11_tof
                0x000000000050c800       0x63 0x10 /usr/local/popcorn/x86_64/lib/libelf.a(32.xlatetof.o)
 ** zero fill   0x000000000050c863       0x11
 ** zero fill   0x000000000050c874        0xc
 .text.shdr_32L11_tom
                0x000000000050c880      0x1af 0x10 /usr/local/popcorn/x86_64/lib/libelf.a(32.xlatetof.o)
 ** zero fill   0x000000000050ca2f        0x1
 .text.shdr_32L11_tof
                0x000000000050ca30      0x13b 0x10 /usr/local/popcorn/x86_64/lib/libelf.a(32.xlatetof.o)
 ** zero fill   0x000000000050cb6b       0x71
 ** zero fill   0x000000000050cbdc        0x4
 .text.sword_32L__tom
                0x000000000050cbe0      0x1a3 0x10 /usr/local/popcorn/x86_64/lib/libelf.a(32.xlatetof.o)
 ** zero fill   0x000000000050cd83        0xd
 .text.sword_32L__tof
                0x000000000050cd90       0xa1 0x10 /usr/local/popcorn/x86_64/lib/libelf.a(32.xlatetof.o)
 ** zero fill   0x000000000050ce31        0xf
 .text.sym_32L11_tom
                0x000000000050ce40       0xba 0x10 /usr/local/popcorn/x86_64/lib/libelf.a(32.xlatetof.o)
 ** zero fill   0x000000000050cefa        0x6
 .text.sym_32L11_tof
                0x000000000050cf00       0x93 0x10 /usr/local/popcorn/x86_64/lib/libelf.a(32.xlatetof.o)
 ** zero fill   0x000000000050cf93       0x25
 ** zero fill   0x000000000050cfb8        0x8
 .text.word_32L__tom
                0x000000000050cfc0      0x1a3 0x10 /usr/local/popcorn/x86_64/lib/libelf.a(32.xlatetof.o)
 ** zero fill   0x000000000050d163        0xd
 .text.word_32L__tof
                0x000000000050d170       0xa1 0x10 /usr/local/popcorn/x86_64/lib/libelf.a(32.xlatetof.o)
 ** zero fill   0x000000000050d211        0xf
 .text.addr_32M__tom
                0x000000000050d220      0x193 0x10 /usr/local/popcorn/x86_64/lib/libelf.a(32.xlatetof.o)
 ** zero fill   0x000000000050d3b3        0xd
 .text.addr_32M__tof
                0x000000000050d3c0       0x91 0x10 /usr/local/popcorn/x86_64/lib/libelf.a(32.xlatetof.o)
 ** zero fill   0x000000000050d451        0xf
 .text.dyn_32M11_tom
                0x000000000050d460       0x77 0x10 /usr/local/popcorn/x86_64/lib/libelf.a(32.xlatetof.o)
 ** zero fill   0x000000000050d4d7        0x9
 .text.dyn_32M11_tof
                0x000000000050d4e0       0x63 0x10 /usr/local/popcorn/x86_64/lib/libelf.a(32.xlatetof.o)
 ** zero fill   0x000000000050d543        0xd
 .text.ehdr_32M11_tom
                0x000000000050d550      0x18b 0x10 /usr/local/popcorn/x86_64/lib/libelf.a(32.xlatetof.o)
 ** zero fill   0x000000000050d6db       0x21
 ** zero fill   0x000000000050d6fc        0x4
 .text.ehdr_32M11_tof
                0x000000000050d700      0x131 0x10 /usr/local/popcorn/x86_64/lib/libelf.a(32.xlatetof.o)
 ** zero fill   0x000000000050d831       0x7b
 ** zero fill   0x000000000050d8ac        0x4
 .text.half_32M__tom
                0x000000000050d8b0      0x1b4 0x10 /usr/local/popcorn/x86_64/lib/libelf.a(32.xlatetof.o)
 ** zero fill   0x000000000050da64        0xc
 .text.half_32M__tof
                0x000000000050da70      0x1b9 0x10 /usr/local/popcorn/x86_64/lib/libelf.a(32.xlatetof.o)
 ** zero fill   0x000000000050dc29        0x7
 .text.off_32M__tom
                0x000000000050dc30      0x193 0x10 /usr/local/popcorn/x86_64/lib/libelf.a(32.xlatetof.o)
 ** zero fill   0x000000000050ddc3        0xd
 .text.off_32M__tof
                0x000000000050ddd0       0x91 0x10 /usr/local/popcorn/x86_64/lib/libelf.a(32.xlatetof.o)
 ** zero fill   0x000000000050de61        0xf
 .text.phdr_32M11_tom
                0x000000000050de70      0x147 0x10 /usr/local/popcorn/x86_64/lib/libelf.a(32.xlatetof.o)
 ** zero fill   0x000000000050dfb7        0x1
 ** zero fill   0x000000000050dfb8        0x8
 .text.phdr_32M11_tof
                0x000000000050dfc0       0xf7 0x10 /usr/local/popcorn/x86_64/lib/libelf.a(32.xlatetof.o)
 ** zero fill   0x000000000050e0b7       0x51
 ** zero fill   0x000000000050e108        0x8
 .text.rela_32M11_tom
                0x000000000050e110       0xad 0x10 /usr/local/popcorn/x86_64/lib/libelf.a(32.xlatetof.o)
 ** zero fill   0x000000000050e1bd        0x3
 .text.rela_32M11_tof
                0x000000000050e1c0       0x8f 0x10 /usr/local/popcorn/x86_64/lib/libelf.a(32.xlatetof.o)
 ** zero fill   0x000000000050e24f       0x1d
 ** zero fill   0x000000000050e26c        0x4
 .text.rel_32M11_tom
                0x000000000050e270       0x77 0x10 /usr/local/popcorn/x86_64/lib/libelf.a(32.xlatetof.o)
 ** zero fill   0x000000000050e2e7        0x9
 .text.rel_32M11_tof
                0x000000000050e2f0       0x63 0x10 /usr/local/popcorn/x86_64/lib/libelf.a(32.xlatetof.o)
 ** zero fill   0x000000000050e353        0xd
 .text.shdr_32M11_tom
                0x000000000050e360      0x19f 0x10 /usr/local/popcorn/x86_64/lib/libelf.a(32.xlatetof.o)
 ** zero fill   0x000000000050e4ff        0x9
 ** zero fill   0x000000000050e508        0x8
 .text.shdr_32M11_tof
                0x000000000050e510      0x13b 0x10 /usr/local/popcorn/x86_64/lib/libelf.a(32.xlatetof.o)
 ** zero fill   0x000000000050e64b       0x6d
 ** zero fill   0x000000000050e6b8        0x8
 .text.sword_32M__tom
                0x000000000050e6c0      0x193 0x10 /usr/local/popcorn/x86_64/lib/libelf.a(32.xlatetof.o)
 ** zero fill   0x000000000050e853        0xd
 .text.sword_32M__tof
                0x000000000050e860       0x91 0x10 /usr/local/popcorn/x86_64/lib/libelf.a(32.xlatetof.o)
 ** zero fill   0x000000000050e8f1        0xf
 .text.sym_32M11_tom
                0x000000000050e900       0xba 0x10 /usr/local/popcorn/x86_64/lib/libelf.a(32.xlatetof.o)
 ** zero fill   0x000000000050e9ba        0x6
 .text.sym_32M11_tof
                0x000000000050e9c0       0x93 0x10 /usr/local/popcorn/x86_64/lib/libelf.a(32.xlatetof.o)
 ** zero fill   0x000000000050ea53       0x21
 ** zero fill   0x000000000050ea74        0xc
 .text.word_32M__tom
                0x000000000050ea80      0x193 0x10 /usr/local/popcorn/x86_64/lib/libelf.a(32.xlatetof.o)
 ** zero fill   0x000000000050ec13        0xd
 .text.word_32M__tof
                0x000000000050ec20       0x91 0x10 /usr/local/popcorn/x86_64/lib/libelf.a(32.xlatetof.o)
 ** zero fill   0x000000000050ecb1        0xf
 .text._elf_scn_type
                0x000000000050ecc0       0x6d 0x10 /usr/local/popcorn/x86_64/lib/libelf.a(cook.o)
                0x000000000050ecc0                _elf_scn_type
 ** zero fill   0x000000000050ed2d       0x3f
 ** zero fill   0x000000000050ed6c        0x4
 .text._elf_xlatetom
                0x000000000050ed70       0x43 0x10 /usr/local/popcorn/x86_64/lib/libelf.a(cook.o)
                0x000000000050ed70                _elf_xlatetom
 ** zero fill   0x000000000050edb3        0xd
 .text._elf_cook
                0x000000000050edc0      0x851 0x10 /usr/local/popcorn/x86_64/lib/libelf.a(cook.o)
                0x000000000050edc0                _elf_cook
 ** zero fill   0x000000000050f611        0xf
 .text._elf_item
                0x000000000050f620      0x181 0x10 /usr/local/popcorn/x86_64/lib/libelf.a(cook.o)
 ** zero fill   0x000000000050f7a1       0x1f
 .text._elf_read
                0x000000000050f7c0      0x10c 0x10 /usr/local/popcorn/x86_64/lib/libelf.a(input.o)
                0x000000000050f7c0                _elf_read
 ** zero fill   0x000000000050f8cc       0x34
 .text._elf_mmap
                0x000000000050f900       0x44 0x10 /usr/local/popcorn/x86_64/lib/libelf.a(input.o)
                0x000000000050f900                _elf_mmap
 ** zero fill   0x000000000050f944        0xc
 .text.elf_getphdrnum
                0x000000000050f950       0x54 0x10 /usr/local/popcorn/x86_64/lib/libelf.a(x.elfext.o)
                0x000000000050f950                elf_getphdrnum
 ** zero fill   0x000000000050f9a4       0x2c
 .text.elf_getshdrnum
                0x000000000050f9d0       0x6a 0x10 /usr/local/popcorn/x86_64/lib/libelf.a(x.elfext.o)
                0x000000000050f9d0                elf_getshdrnum
 ** zero fill   0x000000000050fa3a       0x2a
 ** zero fill   0x000000000050fa64        0xc
 .text.elf_getshdrstrndx
                0x000000000050fa70       0xd3 0x10 /usr/local/popcorn/x86_64/lib/libelf.a(x.elfext.o)
                0x000000000050fa70                elf_getshdrstrndx
 ** zero fill   0x000000000050fb43       0x25
 ** zero fill   0x000000000050fb68        0x8
 .text.elf_getphnum
                0x000000000050fb70       0x54 0x10 /usr/local/popcorn/x86_64/lib/libelf.a(x.elfext.o)
                0x000000000050fb70                elf_getphnum
 ** zero fill   0x000000000050fbc4       0x24
 ** zero fill   0x000000000050fbe8        0x8
 .text.elf_getshnum
                0x000000000050fbf0       0x62 0x10 /usr/local/popcorn/x86_64/lib/libelf.a(x.elfext.o)
                0x000000000050fbf0                elf_getshnum
 ** zero fill   0x000000000050fc52       0x2a
 ** zero fill   0x000000000050fc7c        0x4
 .text.elf_getshstrndx
                0x000000000050fc80       0xd3 0x10 /usr/local/popcorn/x86_64/lib/libelf.a(x.elfext.o)
                0x000000000050fc80                elf_getshstrndx
 ** zero fill   0x000000000050fd53       0x31
 ** zero fill   0x000000000050fd84        0xc
 .text.elfx_update_shstrndx
                0x000000000050fd90       0xc4 0x10 /usr/local/popcorn/x86_64/lib/libelf.a(x.elfext.o)
                0x000000000050fd90                elfx_update_shstrndx
 ** zero fill   0x000000000050fe54       0x30
 ** zero fill   0x000000000050fe84        0xc
 .text._elf64_xltsize
                0x000000000050fe90       0x88 0x10 /usr/local/popcorn/x86_64/lib/libelf.a(64.xlatetof.o)
                0x000000000050fe90                _elf64_xltsize
 ** zero fill   0x000000000050ff18       0x10
 ** zero fill   0x000000000050ff28        0x8
 .text.elf64_xlatetom
                0x000000000050ff30      0x104 0x10 /usr/local/popcorn/x86_64/lib/libelf.a(64.xlatetof.o)
                0x000000000050ff30                elf64_xlatetom
 ** zero fill   0x0000000000510034       0x54
 ** zero fill   0x0000000000510088        0x8
 .text.elf64_xlatetof
                0x0000000000510090      0x104 0x10 /usr/local/popcorn/x86_64/lib/libelf.a(64.xlatetof.o)
                0x0000000000510090                elf64_xlatetof
 ** zero fill   0x0000000000510194       0x54
 ** zero fill   0x00000000005101e8        0x8
 .text.gelf_xlatetom
                0x00000000005101f0      0x178 0x10 /usr/local/popcorn/x86_64/lib/libelf.a(64.xlatetof.o)
                0x00000000005101f0                gelf_xlatetom
 ** zero fill   0x0000000000510368       0x3c
 ** zero fill   0x00000000005103a4        0xc
 .text.gelf_xlatetof
                0x00000000005103b0      0x178 0x10 /usr/local/popcorn/x86_64/lib/libelf.a(64.xlatetof.o)
                0x00000000005103b0                gelf_xlatetof
 ** zero fill   0x0000000000510528       0x3c
 ** zero fill   0x0000000000510564        0xc
 .text.byte_copy
                0x0000000000510570       0x20 0x10 /usr/local/popcorn/x86_64/lib/libelf.a(64.xlatetof.o)
 ** zero fill   0x0000000000510590      0x164
 ** zero fill   0x00000000005106f4        0xc
 .text.addr_64L__tom
                0x0000000000510700       0x5c 0x10 /usr/local/popcorn/x86_64/lib/libelf.a(64.xlatetof.o)
 ** zero fill   0x000000000051075c        0x4
 .text.addr_64L__tof
                0x0000000000510760       0x5b 0x10 /usr/local/popcorn/x86_64/lib/libelf.a(64.xlatetof.o)
 ** zero fill   0x00000000005107bb        0x5
 .text.dyn_64L11_tom
                0x00000000005107c0       0x68 0x10 /usr/local/popcorn/x86_64/lib/libelf.a(64.xlatetof.o)
 ** zero fill   0x0000000000510828        0x8
 .text.dyn_64L11_tof
                0x0000000000510830       0x68 0x10 /usr/local/popcorn/x86_64/lib/libelf.a(64.xlatetof.o)
 ** zero fill   0x0000000000510898        0x8
 .text.ehdr_64L11_tom
                0x00000000005108a0      0x1a2 0x10 /usr/local/popcorn/x86_64/lib/libelf.a(64.xlatetof.o)
 ** zero fill   0x0000000000510a42        0xe
 .text.ehdr_64L11_tof
                0x0000000000510a50      0x182 0x10 /usr/local/popcorn/x86_64/lib/libelf.a(64.xlatetof.o)
 ** zero fill   0x0000000000510bd2        0xe
 .text.half_64L__tom
                0x0000000000510be0      0x1b4 0x10 /usr/local/popcorn/x86_64/lib/libelf.a(64.xlatetof.o)
 ** zero fill   0x0000000000510d94        0xc
 .text.half_64L__tof
                0x0000000000510da0      0x1b9 0x10 /usr/local/popcorn/x86_64/lib/libelf.a(64.xlatetof.o)
 ** zero fill   0x0000000000510f59        0x7
 .text.off_64L__tom
                0x0000000000510f60       0x5c 0x10 /usr/local/popcorn/x86_64/lib/libelf.a(64.xlatetof.o)
 ** zero fill   0x0000000000510fbc        0x4
 .text.off_64L__tof
                0x0000000000510fc0       0x5b 0x10 /usr/local/popcorn/x86_64/lib/libelf.a(64.xlatetof.o)
 ** zero fill   0x000000000051101b        0x5
 .text.phdr_64L11_tom
                0x0000000000511020      0x11e 0x10 /usr/local/popcorn/x86_64/lib/libelf.a(64.xlatetof.o)
 ** zero fill   0x000000000051113e        0x2
 .text.phdr_64L11_tof
                0x0000000000511140      0x116 0x10 /usr/local/popcorn/x86_64/lib/libelf.a(64.xlatetof.o)
 ** zero fill   0x0000000000511256        0xa
 .text.rela_64L11_tom
                0x0000000000511260       0x89 0x10 /usr/local/popcorn/x86_64/lib/libelf.a(64.xlatetof.o)
 ** zero fill   0x00000000005112e9        0x7
 .text.rela_64L11_tof
                0x00000000005112f0       0x89 0x10 /usr/local/popcorn/x86_64/lib/libelf.a(64.xlatetof.o)
 ** zero fill   0x0000000000511379        0x7
 .text.rel_64L11_tom
                0x0000000000511380       0x68 0x10 /usr/local/popcorn/x86_64/lib/libelf.a(64.xlatetof.o)
 ** zero fill   0x00000000005113e8        0x8
 .text.rel_64L11_tof
                0x00000000005113f0       0x68 0x10 /usr/local/popcorn/x86_64/lib/libelf.a(64.xlatetof.o)
 ** zero fill   0x0000000000511458        0x8
 .text.shdr_64L11_tom
                0x0000000000511460      0x156 0x10 /usr/local/popcorn/x86_64/lib/libelf.a(64.xlatetof.o)
 ** zero fill   0x00000000005115b6        0xa
 .text.shdr_64L11_tof
                0x00000000005115c0      0x146 0x10 /usr/local/popcorn/x86_64/lib/libelf.a(64.xlatetof.o)
 ** zero fill   0x0000000000511706        0xa
 .text.sword_64L__tom
                0x0000000000511710      0x1a3 0x10 /usr/local/popcorn/x86_64/lib/libelf.a(64.xlatetof.o)
 ** zero fill   0x00000000005118b3        0xd
 .text.sword_64L__tof
                0x00000000005118c0       0xa1 0x10 /usr/local/popcorn/x86_64/lib/libelf.a(64.xlatetof.o)
 ** zero fill   0x0000000000511961        0xf
 .text.sym_64L11_tom
                0x0000000000511970       0xbf 0x10 /usr/local/popcorn/x86_64/lib/libelf.a(64.xlatetof.o)
 ** zero fill   0x0000000000511a2f        0x1
 .text.sym_64L11_tof
                0x0000000000511a30       0xb4 0x10 /usr/local/popcorn/x86_64/lib/libelf.a(64.xlatetof.o)
 ** zero fill   0x0000000000511ae4        0xc
 .text.word_64L__tom
                0x0000000000511af0      0x1a3 0x10 /usr/local/popcorn/x86_64/lib/libelf.a(64.xlatetof.o)
 ** zero fill   0x0000000000511c93        0xd
 .text.word_64L__tof
                0x0000000000511ca0       0xa1 0x10 /usr/local/popcorn/x86_64/lib/libelf.a(64.xlatetof.o)
 ** zero fill   0x0000000000511d41        0xf
 .text.sxword_64L__tom
                0x0000000000511d50       0x5c 0x10 /usr/local/popcorn/x86_64/lib/libelf.a(64.xlatetof.o)
 ** zero fill   0x0000000000511dac        0x4
 .text.sxword_64L__tof
                0x0000000000511db0       0x5b 0x10 /usr/local/popcorn/x86_64/lib/libelf.a(64.xlatetof.o)
 ** zero fill   0x0000000000511e0b        0x5
 .text.xword_64L__tom
                0x0000000000511e10       0x5c 0x10 /usr/local/popcorn/x86_64/lib/libelf.a(64.xlatetof.o)
 ** zero fill   0x0000000000511e6c        0x4
 .text.xword_64L__tof
                0x0000000000511e70       0x5b 0x10 /usr/local/popcorn/x86_64/lib/libelf.a(64.xlatetof.o)
 ** zero fill   0x0000000000511ecb        0x5
 .text.addr_64M__tom
                0x0000000000511ed0       0x5c 0x10 /usr/local/popcorn/x86_64/lib/libelf.a(64.xlatetof.o)
 ** zero fill   0x0000000000511f2c        0x4
 .text.addr_64M__tof
                0x0000000000511f30       0x5b 0x10 /usr/local/popcorn/x86_64/lib/libelf.a(64.xlatetof.o)
 ** zero fill   0x0000000000511f8b        0x5
 .text.dyn_64M11_tom
                0x0000000000511f90       0x68 0x10 /usr/local/popcorn/x86_64/lib/libelf.a(64.xlatetof.o)
 ** zero fill   0x0000000000511ff8        0x8
 .text.dyn_64M11_tof
                0x0000000000512000       0x68 0x10 /usr/local/popcorn/x86_64/lib/libelf.a(64.xlatetof.o)
 ** zero fill   0x0000000000512068        0x8
 .text.ehdr_64M11_tom
                0x0000000000512070      0x1a2 0x10 /usr/local/popcorn/x86_64/lib/libelf.a(64.xlatetof.o)
 ** zero fill   0x0000000000512212        0xe
 .text.ehdr_64M11_tof
                0x0000000000512220      0x182 0x10 /usr/local/popcorn/x86_64/lib/libelf.a(64.xlatetof.o)
 ** zero fill   0x00000000005123a2        0xe
 .text.half_64M__tom
                0x00000000005123b0      0x1b4 0x10 /usr/local/popcorn/x86_64/lib/libelf.a(64.xlatetof.o)
 ** zero fill   0x0000000000512564        0xc
 .text.half_64M__tof
                0x0000000000512570      0x1b9 0x10 /usr/local/popcorn/x86_64/lib/libelf.a(64.xlatetof.o)
 ** zero fill   0x0000000000512729        0x7
 .text.off_64M__tom
                0x0000000000512730       0x5c 0x10 /usr/local/popcorn/x86_64/lib/libelf.a(64.xlatetof.o)
 ** zero fill   0x000000000051278c        0x4
 .text.off_64M__tof
                0x0000000000512790       0x5b 0x10 /usr/local/popcorn/x86_64/lib/libelf.a(64.xlatetof.o)
 ** zero fill   0x00000000005127eb        0x5
 .text.phdr_64M11_tom
                0x00000000005127f0       0xf6 0x10 /usr/local/popcorn/x86_64/lib/libelf.a(64.xlatetof.o)
 ** zero fill   0x00000000005128e6        0x6
 ** zero fill   0x00000000005128ec        0x4
 .text.phdr_64M11_tof
                0x00000000005128f0       0xe8 0x10 /usr/local/popcorn/x86_64/lib/libelf.a(64.xlatetof.o)
 ** zero fill   0x00000000005129d8       0x14
 ** zero fill   0x00000000005129ec        0x4
 .text.rela_64M11_tom
                0x00000000005129f0       0x89 0x10 /usr/local/popcorn/x86_64/lib/libelf.a(64.xlatetof.o)
 ** zero fill   0x0000000000512a79        0x7
 .text.rela_64M11_tof
                0x0000000000512a80       0x89 0x10 /usr/local/popcorn/x86_64/lib/libelf.a(64.xlatetof.o)
 ** zero fill   0x0000000000512b09        0x7
 .text.rel_64M11_tom
                0x0000000000512b10       0x68 0x10 /usr/local/popcorn/x86_64/lib/libelf.a(64.xlatetof.o)
 ** zero fill   0x0000000000512b78        0x8
 .text.rel_64M11_tof
                0x0000000000512b80       0x68 0x10 /usr/local/popcorn/x86_64/lib/libelf.a(64.xlatetof.o)
 ** zero fill   0x0000000000512be8        0x8
 .text.shdr_64M11_tom
                0x0000000000512bf0      0x12c 0x10 /usr/local/popcorn/x86_64/lib/libelf.a(64.xlatetof.o)
 ** zero fill   0x0000000000512d1c        0x4
 .text.shdr_64M11_tof
                0x0000000000512d20      0x110 0x10 /usr/local/popcorn/x86_64/lib/libelf.a(64.xlatetof.o)
 ** zero fill   0x0000000000512e30       0x14
 ** zero fill   0x0000000000512e44        0xc
 .text.sword_64M__tom
                0x0000000000512e50      0x193 0x10 /usr/local/popcorn/x86_64/lib/libelf.a(64.xlatetof.o)
 ** zero fill   0x0000000000512fe3        0xd
 .text.sword_64M__tof
                0x0000000000512ff0       0x91 0x10 /usr/local/popcorn/x86_64/lib/libelf.a(64.xlatetof.o)
 ** zero fill   0x0000000000513081        0xf
 .text.sym_64M11_tom
                0x0000000000513090       0xbf 0x10 /usr/local/popcorn/x86_64/lib/libelf.a(64.xlatetof.o)
 ** zero fill   0x000000000051314f        0x1
 .text.sym_64M11_tof
                0x0000000000513150       0xb4 0x10 /usr/local/popcorn/x86_64/lib/libelf.a(64.xlatetof.o)
 ** zero fill   0x0000000000513204        0xc
 .text.word_64M__tom
                0x0000000000513210      0x193 0x10 /usr/local/popcorn/x86_64/lib/libelf.a(64.xlatetof.o)
 ** zero fill   0x00000000005133a3        0xd
 .text.word_64M__tof
                0x00000000005133b0       0x91 0x10 /usr/local/popcorn/x86_64/lib/libelf.a(64.xlatetof.o)
 ** zero fill   0x0000000000513441        0xf
 .text.sxword_64M__tom
                0x0000000000513450       0x5c 0x10 /usr/local/popcorn/x86_64/lib/libelf.a(64.xlatetof.o)
 ** zero fill   0x00000000005134ac        0x4
 .text.sxword_64M__tof
                0x00000000005134b0       0x5b 0x10 /usr/local/popcorn/x86_64/lib/libelf.a(64.xlatetof.o)
 ** zero fill   0x000000000051350b        0x5
 .text.xword_64M__tom
                0x0000000000513510       0x5c 0x10 /usr/local/popcorn/x86_64/lib/libelf.a(64.xlatetof.o)
 ** zero fill   0x000000000051356c        0x4
 .text.xword_64M__tof
                0x0000000000513570       0x5b 0x10 /usr/local/popcorn/x86_64/lib/libelf.a(64.xlatetof.o)
 ** zero fill   0x00000000005135cb        0x5
 .text.gelf_getshdr
                0x00000000005135d0      0x101 0x10 /usr/local/popcorn/x86_64/lib/libelf.a(gelfshdr.o)
                0x00000000005135d0                gelf_getshdr
 ** zero fill   0x00000000005136d1       0x17
 ** zero fill   0x00000000005136e8        0x8
 .text.gelf_update_shdr
                0x00000000005136f0      0x139 0x10 /usr/local/popcorn/x86_64/lib/libelf.a(gelfshdr.o)
                0x00000000005136f0                gelf_update_shdr
 ** zero fill   0x0000000000513829        0x7
 .text._elf_load_u64L
                0x0000000000513830       0x4e 0x10 /usr/local/popcorn/x86_64/lib/libelf.a(swap64.o)
                0x0000000000513830                _elf_load_u64L
 ** zero fill   0x000000000051387e        0x2
 .text._elf_load_u64M
                0x0000000000513880       0x4e 0x10 /usr/local/popcorn/x86_64/lib/libelf.a(swap64.o)
                0x0000000000513880                _elf_load_u64M
 ** zero fill   0x00000000005138ce        0x2
 .text._elf_load_i64L
                0x00000000005138d0       0x4e 0x10 /usr/local/popcorn/x86_64/lib/libelf.a(swap64.o)
                0x00000000005138d0                _elf_load_i64L
 ** zero fill   0x000000000051391e        0x2
 .text._elf_load_i64M
                0x0000000000513920       0x4e 0x10 /usr/local/popcorn/x86_64/lib/libelf.a(swap64.o)
                0x0000000000513920                _elf_load_i64M
 ** zero fill   0x000000000051396e        0x2
 .text._elf_store_u64L
                0x0000000000513970       0x3e 0x10 /usr/local/popcorn/x86_64/lib/libelf.a(swap64.o)
                0x0000000000513970                _elf_store_u64L
 ** zero fill   0x00000000005139ae        0x2
 .text._elf_store_u64M
                0x00000000005139b0       0x3e 0x10 /usr/local/popcorn/x86_64/lib/libelf.a(swap64.o)
                0x00000000005139b0                _elf_store_u64M
 ** zero fill   0x00000000005139ee        0x2
 .text._elf_store_i64L
                0x00000000005139f0       0x3e 0x10 /usr/local/popcorn/x86_64/lib/libelf.a(swap64.o)
                0x00000000005139f0                _elf_store_i64L
 ** zero fill   0x0000000000513a2e        0x2
 .text._elf_store_i64M
                0x0000000000513a30       0x3e 0x10 /usr/local/popcorn/x86_64/lib/libelf.a(swap64.o)
                0x0000000000513a30                _elf_store_i64M
 ** zero fill   0x0000000000513a6e        0x2
 .text._elf_verdef_32L11_tof
                0x0000000000513a70        0xa 0x10 /usr/local/popcorn/x86_64/lib/libelf.a(verdef_32_tof.o)
                0x0000000000513a70                _elf_verdef_32L11_tof
 ** zero fill   0x0000000000513a7a        0x6
 .text.xlt_verdef
                0x0000000000513a80      0x2fd 0x10 /usr/local/popcorn/x86_64/lib/libelf.a(verdef_32_tof.o)
 ** zero fill   0x0000000000513d7d        0x3
 .text._elf_verdef_32M11_tof
                0x0000000000513d80        0xa 0x10 /usr/local/popcorn/x86_64/lib/libelf.a(verdef_32_tof.o)
                0x0000000000513d80                _elf_verdef_32M11_tof
 ** zero fill   0x0000000000513d8a        0x6
 .text._elf_verneed_32L11_tof
                0x0000000000513d90        0xa 0x10 /usr/local/popcorn/x86_64/lib/libelf.a(verdef_32_tof.o)
                0x0000000000513d90                _elf_verneed_32L11_tof
 ** zero fill   0x0000000000513d9a        0x6
 .text.xlt_verneed
                0x0000000000513da0      0x351 0x10 /usr/local/popcorn/x86_64/lib/libelf.a(verdef_32_tof.o)
 ** zero fill   0x00000000005140f1        0xf
 .text._elf_verneed_32M11_tof
                0x0000000000514100        0xa 0x10 /usr/local/popcorn/x86_64/lib/libelf.a(verdef_32_tof.o)
                0x0000000000514100                _elf_verneed_32M11_tof
 ** zero fill   0x000000000051410a        0x6
 .text._elf_verdef_32L11_tom
                0x0000000000514110        0xa 0x10 /usr/local/popcorn/x86_64/lib/libelf.a(verdef_32_tom.o)
                0x0000000000514110                _elf_verdef_32L11_tom
 ** zero fill   0x000000000051411a        0x6
 .text.xlt_verdef
                0x0000000000514120      0x41f 0x10 /usr/local/popcorn/x86_64/lib/libelf.a(verdef_32_tom.o)
 ** zero fill   0x000000000051453f        0x1
 .text._elf_verdef_32M11_tom
                0x0000000000514540        0xa 0x10 /usr/local/popcorn/x86_64/lib/libelf.a(verdef_32_tom.o)
                0x0000000000514540                _elf_verdef_32M11_tom
 ** zero fill   0x000000000051454a        0x6
 .text._elf_verneed_32L11_tom
                0x0000000000514550        0xa 0x10 /usr/local/popcorn/x86_64/lib/libelf.a(verdef_32_tom.o)
                0x0000000000514550                _elf_verneed_32L11_tom
 ** zero fill   0x000000000051455a        0x6
 .text.xlt_verneed
                0x0000000000514560      0x3a1 0x10 /usr/local/popcorn/x86_64/lib/libelf.a(verdef_32_tom.o)
 ** zero fill   0x0000000000514901        0xf
 .text._elf_verneed_32M11_tom
                0x0000000000514910        0xa 0x10 /usr/local/popcorn/x86_64/lib/libelf.a(verdef_32_tom.o)
                0x0000000000514910                _elf_verneed_32M11_tom
 ** zero fill   0x000000000051491a        0x6
 .text._elf_verdef_64L11_tof
                0x0000000000514920        0xa 0x10 /usr/local/popcorn/x86_64/lib/libelf.a(verdef_64_tof.o)
                0x0000000000514920                _elf_verdef_64L11_tof
 ** zero fill   0x000000000051492a        0x6
 .text.xlt_verdef
                0x0000000000514930      0x2fd 0x10 /usr/local/popcorn/x86_64/lib/libelf.a(verdef_64_tof.o)
 ** zero fill   0x0000000000514c2d        0x3
 .text._elf_verdef_64M11_tof
                0x0000000000514c30        0xa 0x10 /usr/local/popcorn/x86_64/lib/libelf.a(verdef_64_tof.o)
                0x0000000000514c30                _elf_verdef_64M11_tof
 ** zero fill   0x0000000000514c3a        0x6
 .text._elf_verneed_64L11_tof
                0x0000000000514c40        0xa 0x10 /usr/local/popcorn/x86_64/lib/libelf.a(verdef_64_tof.o)
                0x0000000000514c40                _elf_verneed_64L11_tof
 ** zero fill   0x0000000000514c4a        0x6
 .text.xlt_verneed
                0x0000000000514c50      0x351 0x10 /usr/local/popcorn/x86_64/lib/libelf.a(verdef_64_tof.o)
 ** zero fill   0x0000000000514fa1        0xf
 .text._elf_verneed_64M11_tof
                0x0000000000514fb0        0xa 0x10 /usr/local/popcorn/x86_64/lib/libelf.a(verdef_64_tof.o)
                0x0000000000514fb0                _elf_verneed_64M11_tof
 ** zero fill   0x0000000000514fba        0x6
 .text._elf_verdef_64L11_tom
                0x0000000000514fc0        0xa 0x10 /usr/local/popcorn/x86_64/lib/libelf.a(verdef_64_tom.o)
                0x0000000000514fc0                _elf_verdef_64L11_tom
 ** zero fill   0x0000000000514fca        0x6
 .text.xlt_verdef
                0x0000000000514fd0      0x41f 0x10 /usr/local/popcorn/x86_64/lib/libelf.a(verdef_64_tom.o)
 ** zero fill   0x00000000005153ef        0x1
 .text._elf_verdef_64M11_tom
                0x00000000005153f0        0xa 0x10 /usr/local/popcorn/x86_64/lib/libelf.a(verdef_64_tom.o)
                0x00000000005153f0                _elf_verdef_64M11_tom
 ** zero fill   0x00000000005153fa        0x6
 .text._elf_verneed_64L11_tom
                0x0000000000515400        0xa 0x10 /usr/local/popcorn/x86_64/lib/libelf.a(verdef_64_tom.o)
                0x0000000000515400                _elf_verneed_64L11_tom
 ** zero fill   0x000000000051540a        0x6
 .text.xlt_verneed
                0x0000000000515410      0x3a1 0x10 /usr/local/popcorn/x86_64/lib/libelf.a(verdef_64_tom.o)
 ** zero fill   0x00000000005157b1        0xf
 .text._elf_verneed_64M11_tom
                0x00000000005157c0        0xa 0x10 /usr/local/popcorn/x86_64/lib/libelf.a(verdef_64_tom.o)
                0x00000000005157c0                _elf_verneed_64M11_tom
 ** zero fill   0x00000000005157ca        0x6
 .text.elf_getscn
                0x00000000005157d0       0x70 0x10 /usr/local/popcorn/x86_64/lib/libelf.a(getscn.o)
                0x00000000005157d0                elf_getscn
 ** zero fill   0x0000000000515840       0x20
 .text._elf_update_shnum
                0x0000000000515860       0x68 0x10 /usr/local/popcorn/x86_64/lib/libelf.a(newscn.o)
                0x0000000000515860                _elf_update_shnum
 ** zero fill   0x00000000005158c8       0x10
 ** zero fill   0x00000000005158d8        0x8
 .text._elf_first_scn
                0x00000000005158e0       0xed 0x10 /usr/local/popcorn/x86_64/lib/libelf.a(newscn.o)
                0x00000000005158e0                _elf_first_scn
 ** zero fill   0x00000000005159cd        0x7
 ** zero fill   0x00000000005159d4        0xc
 .text.elf_newscn
                0x00000000005159e0      0x249 0x10 /usr/local/popcorn/x86_64/lib/libelf.a(newscn.o)
                0x00000000005159e0                elf_newscn
 ** zero fill   0x0000000000515c29        0x7
 .text.elf32_fsize
                0x0000000000515c30       0x39 0x10 /usr/local/popcorn/x86_64/lib/libelf.a(32.fsize.o)
                0x0000000000515c30                elf32_fsize
 ** zero fill   0x0000000000515c69       0x13
 ** zero fill   0x0000000000515c7c        0x4
 .text.elf64_fsize
                0x0000000000515c80       0x39 0x10 /usr/local/popcorn/x86_64/lib/libelf.a(32.fsize.o)
                0x0000000000515c80                elf64_fsize
 ** zero fill   0x0000000000515cb9       0x13
 ** zero fill   0x0000000000515ccc        0x4
 .text.gelf_fsize
                0x0000000000515cd0       0x76 0x10 /usr/local/popcorn/x86_64/lib/libelf.a(32.fsize.o)
                0x0000000000515cd0                gelf_fsize
 ** zero fill   0x0000000000515d46       0x32
 ** zero fill   0x0000000000515d78        0x8
 .text.gelf_msize
                0x0000000000515d80       0x79 0x10 /usr/local/popcorn/x86_64/lib/libelf.a(32.fsize.o)
                0x0000000000515d80                gelf_msize
 ** zero fill   0x0000000000515df9       0x3b
 .text.__crash_aarch64
                0x0000000000515e34        0x3 0x1 /usr/local/popcorn/x86_64/lib/libc.a(arch_crash.o)
                0x0000000000515e34                __crash_aarch64
                0x0000000000515e34                crash_aarch64
 ** zero fill   0x0000000000515e37       0x2d
 .text.__crash_powerpc64
                0x0000000000515e64        0x3 0x1 /usr/local/popcorn/x86_64/lib/libc.a(arch_crash.o)
                0x0000000000515e64                __crash_powerpc64
                0x0000000000515e64                crash_powerpc64
 ** zero fill   0x0000000000515e67        0x5
 .text.__crash_x86_64
                0x0000000000515e6c       0x18 0x1 /usr/local/popcorn/x86_64/lib/libc.a(arch_crash.o)
                0x0000000000515e6c                __crash_x86_64
                0x0000000000515e6c                crash_x86_64
 .text.__crash  0x0000000000515e84       0x18 0x1 /usr/local/popcorn/x86_64/lib/libc.a(arch_crash.o)
                0x0000000000515e84                __crash
                0x0000000000515e84                crash
 ** zero fill   0x0000000000515e9c       0x18
 .text.getenv   0x0000000000515eb4       0x85 0x1 /usr/local/popcorn/x86_64/lib/libc.a(getenv.o)
                0x0000000000515eb4                getenv
 ** zero fill   0x0000000000515f39        0x7
 .text.popcorn_getnid
                0x0000000000515f40       0x29 0x1 /usr/local/popcorn/x86_64/lib/libc.a(platform.o)
                0x0000000000515f40                popcorn_getnid
 ** zero fill   0x0000000000515f69        0xf
 .text.popcorn_getthreadinfo
                0x0000000000515f78        0xf 0x1 /usr/local/popcorn/x86_64/lib/libc.a(platform.o)
                0x0000000000515f78                popcorn_getthreadinfo
 ** zero fill   0x0000000000515f87        0xd
 .text.popcorn_getnodeinfo
                0x0000000000515f94       0x78 0x1 /usr/local/popcorn/x86_64/lib/libc.a(platform.o)
                0x0000000000515f94                popcorn_getnodeinfo
 ** zero fill   0x000000000051600c       0x14
 .text.__assert_fail
                0x0000000000516020       0x2c 0x1 /usr/local/popcorn/x86_64/lib/libc.a(assert.o)
                0x0000000000516020                __assert_fail
 ** zero fill   0x000000000051604c       0x20
 .text.open     0x000000000051606c      0x126 0x1 /usr/local/popcorn/x86_64/lib/libc.a(open.o)
                0x000000000051606c                open
                0x000000000051606c                open64
 ** zero fill   0x0000000000516192        0xe
 .text.calloc   0x00000000005161a0       0x34 0x10 /usr/local/popcorn/x86_64/lib/libc.a(calloc.o)
                0x00000000005161a0                calloc
 ** zero fill   0x00000000005161d4       0x14
 ** zero fill   0x00000000005161e8        0x8
 .text.popcorn_calloc
                0x00000000005161f0       0x38 0x10 /usr/local/popcorn/x86_64/lib/libc.a(calloc.o)
                0x00000000005161f0                popcorn_calloc
 ** zero fill   0x0000000000516228       0x14
 ** zero fill   0x000000000051623c        0x4
 .text.popcorn_calloc_cur
                0x0000000000516240       0x4e 0x10 /usr/local/popcorn/x86_64/lib/libc.a(calloc.o)
                0x0000000000516240                popcorn_calloc_cur
 ** zero fill   0x000000000051628e        0xe
 ** zero fill   0x000000000051629c        0x4
 .text.__simple_malloc
                0x00000000005162a0       0xea 0x10 /usr/local/popcorn/x86_64/lib/libc.a(lite_malloc.o)
 ** zero fill   0x000000000051638a       0x1a
 ** zero fill   0x00000000005163a4        0xc
 .text.__init_malloc
                0x00000000005163b0       0x11 0x10 /usr/local/popcorn/x86_64/lib/libc.a(malloc.o)
 ** zero fill   0x00000000005163c1        0x3
 ** zero fill   0x00000000005163c4        0xc
 .text.malloc   0x00000000005163d0      0x788 0x10 /usr/local/popcorn/x86_64/lib/libc.a(malloc.o)
                0x00000000005163d0                malloc
 ** zero fill   0x0000000000516b58       0xa0
 ** zero fill   0x0000000000516bf8        0x8
 .text.lock_bin
                0x0000000000516c00       0x78 0x10 /usr/local/popcorn/x86_64/lib/libc.a(malloc.o)
 ** zero fill   0x0000000000516c78       0x34
 ** zero fill   0x0000000000516cac        0x4
 .text.unbin    0x0000000000516cb0       0x53 0x10 /usr/local/popcorn/x86_64/lib/libc.a(malloc.o)
 ** zero fill   0x0000000000516d03       0x51
 ** zero fill   0x0000000000516d54        0xc
 .text.unlock_bin
                0x0000000000516d60       0x55 0x10 /usr/local/popcorn/x86_64/lib/libc.a(malloc.o)
 ** zero fill   0x0000000000516db5       0x17
 ** zero fill   0x0000000000516dcc        0x4
 .text.__malloc0
                0x0000000000516dd0       0xaf 0x10 /usr/local/popcorn/x86_64/lib/libc.a(malloc.o)
                0x0000000000516dd0                __malloc0
 ** zero fill   0x0000000000516e7f       0x15
 ** zero fill   0x0000000000516e94        0xc
 .text.realloc  0x0000000000516ea0      0x247 0x10 /usr/local/popcorn/x86_64/lib/libc.a(malloc.o)
                0x0000000000516ea0                realloc
 ** zero fill   0x00000000005170e7       0x25
 ** zero fill   0x000000000051710c        0x4
 .text.free     0x0000000000517110      0x672 0x10 /usr/local/popcorn/x86_64/lib/libc.a(malloc.o)
                0x0000000000517110                free
 ** zero fill   0x0000000000517782       0x3e
 .text.alloc_fwd
                0x00000000005177c0       0xc2 0x10 /usr/local/popcorn/x86_64/lib/libc.a(malloc.o)
 ** zero fill   0x0000000000517882        0x6
 ** zero fill   0x0000000000517888        0x8
 .text.__init_malloc
                0x0000000000517890       0x11 0x10 /usr/local/popcorn/x86_64/lib/libc.a(popcorn_malloc.o)
 ** zero fill   0x00000000005178a1        0x3
 ** zero fill   0x00000000005178a4        0xc
 .text.popcorn_malloc
                0x00000000005178b0      0x9b7 0x10 /usr/local/popcorn/x86_64/lib/libc.a(popcorn_malloc.o)
                0x00000000005178b0                popcorn_malloc
 ** zero fill   0x0000000000518267       0xd1
 ** zero fill   0x0000000000518338        0x8
 .text.__popcorn_malloc0
                0x0000000000518340       0xaf 0x10 /usr/local/popcorn/x86_64/lib/libc.a(popcorn_malloc.o)
                0x0000000000518340                __popcorn_malloc0
 ** zero fill   0x00000000005183ef       0x15
 ** zero fill   0x0000000000518404        0xc
 .text.popcorn_malloc_cur
                0x0000000000518410       0x16 0x10 /usr/local/popcorn/x86_64/lib/libc.a(popcorn_malloc.o)
                0x0000000000518410                popcorn_malloc_cur
 ** zero fill   0x0000000000518426       0x12
 ** zero fill   0x0000000000518438        0x8
 .text.popcorn_realloc
                0x0000000000518440      0x4cb 0x10 /usr/local/popcorn/x86_64/lib/libc.a(popcorn_malloc.o)
                0x0000000000518440                popcorn_realloc
 ** zero fill   0x000000000051890b       0x55
 .text.popcorn_free
                0x0000000000518960      0x90b 0x10 /usr/local/popcorn/x86_64/lib/libc.a(popcorn_malloc.o)
                0x0000000000518960                popcorn_free
 ** zero fill   0x000000000051926b       0xcd
 ** zero fill   0x0000000000519338        0x8
 .text.popcorn_realloc_cur
                0x0000000000519340       0x25 0x10 /usr/local/popcorn/x86_64/lib/libc.a(popcorn_malloc.o)
                0x0000000000519340                popcorn_realloc_cur
 ** zero fill   0x0000000000519365        0xb
 .text.getrlimit
                0x0000000000519370       0xad 0x1 /usr/local/popcorn/x86_64/lib/libc.a(getrlimit.o)
                0x0000000000519370                getrlimit
                0x0000000000519370                getrlimit64
 ** zero fill   0x000000000051941d       0x4b
 .text.syscall  0x0000000000519468      0x1ef 0x1 /usr/local/popcorn/x86_64/lib/libc.a(syscall.o)
                0x0000000000519468                syscall
 ** zero fill   0x0000000000519657        0x1
 .text.__madvise
                0x0000000000519658       0x12 0x1 /usr/local/popcorn/x86_64/lib/libc.a(madvise.o)
                0x0000000000519658                __madvise
                0x0000000000519658                madvise
 ** zero fill   0x000000000051966a        0xe
 .text.dummy    0x0000000000519678        0x1 0x1 /usr/local/popcorn/x86_64/lib/libc.a(mmap.o)
                0x0000000000519678                __vm_wait
 ** zero fill   0x0000000000519679        0x3
 .text.__mmap   0x000000000051967c       0xb5 0x1 /usr/local/popcorn/x86_64/lib/libc.a(mmap.o)
                0x000000000051967c                __mmap
                0x000000000051967c                mmap
                0x000000000051967c                mmap64
 ** zero fill   0x0000000000519731        0xb
 .text.dummy    0x000000000051973c        0x1 0x1 /usr/local/popcorn/x86_64/lib/libc.a(mremap.o)
 ** zero fill   0x000000000051973d        0x3
 .text.__mremap
                0x0000000000519740      0x11e 0x1 /usr/local/popcorn/x86_64/lib/libc.a(mremap.o)
                0x0000000000519740                __mremap
                0x0000000000519740                mremap
 ** zero fill   0x000000000051985e        0x2
 .text.dummy    0x0000000000519860        0x1 0x1 /usr/local/popcorn/x86_64/lib/libc.a(munmap.o)
 ** zero fill   0x0000000000519861        0x3
 .text.__munmap
                0x0000000000519864       0x2b 0x1 /usr/local/popcorn/x86_64/lib/libc.a(munmap.o)
                0x0000000000519864                __munmap
                0x0000000000519864                munmap
 ** zero fill   0x000000000051988f        0xd
 .text.__get_handler_set
                0x000000000051989c        0xf 0x1 /usr/local/popcorn/x86_64/lib/libc.a(sigaction.o)
                0x000000000051989c                __get_handler_set
 ** zero fill   0x00000000005198ab        0x1
 .text.__libc_sigaction
                0x00000000005198ac      0x139 0x1 /usr/local/popcorn/x86_64/lib/libc.a(sigaction.o)
                0x00000000005198ac                __libc_sigaction
 ** zero fill   0x00000000005199e5       0x5b
 .text.__sigaction
                0x0000000000519a40       0x2a 0x1 /usr/local/popcorn/x86_64/lib/libc.a(sigaction.o)
                0x0000000000519a40                __sigaction
                0x0000000000519a40                sigaction
 ** zero fill   0x0000000000519a6a       0x16
 .text.sigemptyset
                0x0000000000519a80        0xa 0x1 /usr/local/popcorn/x86_64/lib/libc.a(sigemptyset.o)
                0x0000000000519a80                sigemptyset
 ** zero fill   0x0000000000519a8a        0x2
 .text.__libc_current_sigrtmin
                0x0000000000519a8c        0x6 0x1 /usr/local/popcorn/x86_64/lib/libc.a(sigrtmin.o)
                0x0000000000519a8c                __libc_current_sigrtmin
 ** zero fill   0x0000000000519a92        0x2
 ** zero fill   0x0000000000519a94        0xc
 .text.__restore_rt
                0x0000000000519aa0        0x9 0x1 /usr/local/popcorn/x86_64/lib/libc.a(restore.o)
                0x0000000000519aa0                __restore_rt
 ** zero fill   0x0000000000519aa9        0x3
 .text.dummy    0x0000000000519aac        0x1 0x1 /usr/local/popcorn/x86_64/lib/libc.a(fclose.o)
                0x0000000000519aac                __unlist_locked_file
 ** zero fill   0x0000000000519aad        0x3
 .text.fclose   0x0000000000519ab0       0xb4 0x1 /usr/local/popcorn/x86_64/lib/libc.a(fclose.o)
                0x0000000000519ab0                fclose
 ** zero fill   0x0000000000519b64       0x24
 .text.fflush   0x0000000000519b88      0x10d 0x1 /usr/local/popcorn/x86_64/lib/libc.a(fflush.o)
                0x0000000000519b88                fflush
                0x0000000000519b88                fflush_unlocked
 ** zero fill   0x0000000000519c95       0x47
 .text.fopen    0x0000000000519cdc       0x94 0x1 /usr/local/popcorn/x86_64/lib/libc.a(fopen.o)
                0x0000000000519cdc                fopen
                0x0000000000519cdc                fopen64
 ** zero fill   0x0000000000519d70       0x2c
 .text.fprintf  0x0000000000519d9c       0x97 0x1 /usr/local/popcorn/x86_64/lib/libc.a(fprintf.o)
                0x0000000000519d9c                fprintf
 ** zero fill   0x0000000000519e33        0x1
 .text.fscanf   0x0000000000519e34       0x97 0x1 /usr/local/popcorn/x86_64/lib/libc.a(fscanf.o)
                0x0000000000519e34                __isoc99_fscanf
                0x0000000000519e34                fscanf
 ** zero fill   0x0000000000519ecb        0x1
 .text.__fseeko_unlocked
                0x0000000000519ecc       0x83 0x1 /usr/local/popcorn/x86_64/lib/libc.a(fseek.o)
                0x0000000000519ecc                __fseeko_unlocked
 ** zero fill   0x0000000000519f4f       0x3d
 .text.__fseeko
                0x0000000000519f8c       0x60 0x1 /usr/local/popcorn/x86_64/lib/libc.a(fseek.o)
                0x0000000000519f8c                __fseeko
                0x0000000000519f8c                fseeko
                0x0000000000519f8c                fseeko64
 ** zero fill   0x0000000000519fec       0x1c
 .text.fseek    0x000000000051a008        0x5 0x1 /usr/local/popcorn/x86_64/lib/libc.a(fseek.o)
                0x000000000051a008                fseek
 ** zero fill   0x000000000051a00d        0x3
 .text.getc     0x000000000051a010       0x76 0x1 /usr/local/popcorn/x86_64/lib/libc.a(getc.o)
                0x000000000051a010                _IO_getc
                0x000000000051a010                getc
 ** zero fill   0x000000000051a086       0x2a
 .text.getline  0x000000000051a0b0       0x10 0x1 /usr/local/popcorn/x86_64/lib/libc.a(getline.o)
                0x000000000051a0b0                getline
 .text.perror   0x000000000051a0c0       0xb8 0x1 /usr/local/popcorn/x86_64/lib/libc.a(perror.o)
                0x000000000051a0c0                perror
 ** zero fill   0x000000000051a178       0x14
 .text.snprintf
                0x000000000051a18c       0x92 0x1 /usr/local/popcorn/x86_64/lib/libc.a(snprintf.o)
                0x000000000051a18c                snprintf
 ** zero fill   0x000000000051a21e        0x2
 .text.sscanf   0x000000000051a220       0x97 0x1 /usr/local/popcorn/x86_64/lib/libc.a(sscanf.o)
                0x000000000051a220                __isoc99_sscanf
                0x000000000051a220                sscanf
 ** zero fill   0x000000000051a2b7        0x1
 .text.vfscanf  0x000000000051a2b8      0xccc 0x1 /usr/local/popcorn/x86_64/lib/libc.a(vfscanf.o)
                0x000000000051a2b8                __isoc99_vfscanf
                0x000000000051a2b8                vfscanf
 ** zero fill   0x000000000051af84       0xcc
 .text.vsnprintf
                0x000000000051b050       0xcb 0x1 /usr/local/popcorn/x86_64/lib/libc.a(vsnprintf.o)
                0x000000000051b050                vsnprintf
 ** zero fill   0x000000000051b11b        0x9
 .text.sn_write
                0x000000000051b124       0xb7 0x1 /usr/local/popcorn/x86_64/lib/libc.a(vsnprintf.o)
 ** zero fill   0x000000000051b1db       0x21
 .text.vsscanf  0x000000000051b1fc       0x68 0x1 /usr/local/popcorn/x86_64/lib/libc.a(vsscanf.o)
                0x000000000051b1fc                __isoc99_vsscanf
                0x000000000051b1fc                vsscanf
 ** zero fill   0x000000000051b264       0x18
 .text.do_read  0x000000000051b27c        0x5 0x1 /usr/local/popcorn/x86_64/lib/libc.a(vsscanf.o)
 ** zero fill   0x000000000051b281        0x3
 .text.bsearch  0x000000000051b284       0x84 0x1 /usr/local/popcorn/x86_64/lib/libc.a(bsearch.o)
                0x000000000051b284                bsearch
 .text.qsort    0x000000000051b308      0x353 0x1 /usr/local/popcorn/x86_64/lib/libc.a(qsort.o)
                0x000000000051b308                qsort
 ** zero fill   0x000000000051b65b        0x1
 .text.sift     0x000000000051b65c       0xf0 0x1 /usr/local/popcorn/x86_64/lib/libc.a(qsort.o)
 ** zero fill   0x000000000051b74c       0x18
 .text.trinkle  0x000000000051b764      0x235 0x1 /usr/local/popcorn/x86_64/lib/libc.a(qsort.o)
 ** zero fill   0x000000000051b999        0x3
 .text.cycle    0x000000000051b99c       0x90 0x1 /usr/local/popcorn/x86_64/lib/libc.a(qsort.o)
 ** zero fill   0x000000000051ba2c       0x2c
 .text.strtoull
                0x000000000051ba58        0xc 0x1 /usr/local/popcorn/x86_64/lib/libc.a(strtol.o)
                0x000000000051ba58                __strtoull_internal
                0x000000000051ba58                strtoull
 .text.strtox   0x000000000051ba64       0xac 0x1 /usr/local/popcorn/x86_64/lib/libc.a(strtol.o)
 ** zero fill   0x000000000051bb10        0x8
 .text.strtoll  0x000000000051bb18        0xf 0x1 /usr/local/popcorn/x86_64/lib/libc.a(strtol.o)
                0x000000000051bb18                __strtoll_internal
                0x000000000051bb18                strtoll
 ** zero fill   0x000000000051bb27        0x1
 .text.strtoul  0x000000000051bb28        0xc 0x1 /usr/local/popcorn/x86_64/lib/libc.a(strtol.o)
                0x000000000051bb28                __strtoul_internal
                0x000000000051bb28                strtoul
 .text.strtol   0x000000000051bb34        0xf 0x1 /usr/local/popcorn/x86_64/lib/libc.a(strtol.o)
                0x000000000051bb34                __strtol_internal
                0x000000000051bb34                strtol
 ** zero fill   0x000000000051bb43        0x1
 .text.strtoimax
                0x000000000051bb44        0xf 0x1 /usr/local/popcorn/x86_64/lib/libc.a(strtol.o)
                0x000000000051bb44                __strtoimax_internal
                0x000000000051bb44                strtoimax
 ** zero fill   0x000000000051bb53        0x1
 .text.strtoumax
                0x000000000051bb54        0xc 0x1 /usr/local/popcorn/x86_64/lib/libc.a(strtol.o)
                0x000000000051bb54                __strtoumax_internal
                0x000000000051bb54                strtoumax
 .text.strchr   0x000000000051bb60       0x18 0x10 /usr/local/popcorn/x86_64/lib/libc.a(strchr.o)
                0x000000000051bb60                strchr
 ** zero fill   0x000000000051bb78       0x14
 ** zero fill   0x000000000051bb8c        0x4
 .text.__strchrnul
                0x000000000051bb90       0xe8 0x10 /usr/local/popcorn/x86_64/lib/libc.a(strchrnul.o)
                0x000000000051bb90                __strchrnul
                0x000000000051bb90                strchrnul
 ** zero fill   0x000000000051bc78        0x8
 .text.strcmp   0x000000000051bc80       0x46 0x10 /usr/local/popcorn/x86_64/lib/libc.a(strcmp.o)
                0x000000000051bc80                strcmp
 ** zero fill   0x000000000051bcc6        0xa
 .text.strlen   0x000000000051bcd0       0x61 0x10 /usr/local/popcorn/x86_64/lib/libc.a(strlen.o)
                0x000000000051bcd0                strlen
 ** zero fill   0x000000000051bd31        0xf
 .text.strncmp  0x000000000051bd40       0x42 0x10 /usr/local/popcorn/x86_64/lib/libc.a(strncmp.o)
                0x000000000051bd40                strncmp
 ** zero fill   0x000000000051bd82        0xe
 .text.sccp     0x000000000051bd90       0x13 0x1 /usr/local/popcorn/x86_64/lib/libc.a(__syscall_cp.o)
                0x000000000051bd90                __syscall_cp_c
 ** zero fill   0x000000000051bda3        0x1
 .text.__syscall_cp
                0x000000000051bda4        0x5 0x1 /usr/local/popcorn/x86_64/lib/libc.a(__syscall_cp.o)
                0x000000000051bda4                __syscall_cp
 ** zero fill   0x000000000051bda9        0x3
 .text.pthread_attr_getdetachstate
                0x000000000051bdac        0x8 0x1 /usr/local/popcorn/x86_64/lib/libc.a(pthread_attr_get.o)
                0x000000000051bdac                pthread_attr_getdetachstate
 ** zero fill   0x000000000051bdb4        0x8
 .text.pthread_attr_getguardsize
                0x000000000051bdbc        0xa 0x1 /usr/local/popcorn/x86_64/lib/libc.a(pthread_attr_get.o)
                0x000000000051bdbc                pthread_attr_getguardsize
 ** zero fill   0x000000000051bdc6        0x6
 .text.pthread_attr_getinheritsched
                0x000000000051bdcc        0x8 0x1 /usr/local/popcorn/x86_64/lib/libc.a(pthread_attr_get.o)
                0x000000000051bdcc                pthread_attr_getinheritsched
 ** zero fill   0x000000000051bdd4        0x8
 .text.pthread_attr_getschedparam
                0x000000000051bddc        0x8 0x1 /usr/local/popcorn/x86_64/lib/libc.a(pthread_attr_get.o)
                0x000000000051bddc                pthread_attr_getschedparam
 ** zero fill   0x000000000051bde4        0x8
 .text.pthread_attr_getschedpolicy
                0x000000000051bdec        0x8 0x1 /usr/local/popcorn/x86_64/lib/libc.a(pthread_attr_get.o)
                0x000000000051bdec                pthread_attr_getschedpolicy
 ** zero fill   0x000000000051bdf4        0x8
 .text.pthread_attr_getscope
                0x000000000051bdfc        0x9 0x1 /usr/local/popcorn/x86_64/lib/libc.a(pthread_attr_get.o)
                0x000000000051bdfc                pthread_attr_getscope
 ** zero fill   0x000000000051be05        0x3
 .text.pthread_attr_getstack
                0x000000000051be08       0x1d 0x1 /usr/local/popcorn/x86_64/lib/libc.a(pthread_attr_get.o)
                0x000000000051be08                pthread_attr_getstack
 ** zero fill   0x000000000051be25        0xf
 .text.pthread_attr_getstacksize
                0x000000000051be34        0x9 0x1 /usr/local/popcorn/x86_64/lib/libc.a(pthread_attr_get.o)
                0x000000000051be34                pthread_attr_getstacksize
 ** zero fill   0x000000000051be3d        0x7
 .text.pthread_barrierattr_getpshared
                0x000000000051be44        0xe 0x1 /usr/local/popcorn/x86_64/lib/libc.a(pthread_attr_get.o)
                0x000000000051be44                pthread_barrierattr_getpshared
 ** zero fill   0x000000000051be52        0xa
 .text.pthread_condattr_getclock
                0x000000000051be5c        0xc 0x1 /usr/local/popcorn/x86_64/lib/libc.a(pthread_attr_get.o)
                0x000000000051be5c                pthread_condattr_getclock
 ** zero fill   0x000000000051be68        0x8
 .text.pthread_condattr_getpshared
                0x000000000051be70        0xa 0x1 /usr/local/popcorn/x86_64/lib/libc.a(pthread_attr_get.o)
                0x000000000051be70                pthread_condattr_getpshared
 ** zero fill   0x000000000051be7a        0xa
 .text.pthread_mutexattr_getprotocol
                0x000000000051be84        0x9 0x1 /usr/local/popcorn/x86_64/lib/libc.a(pthread_attr_get.o)
                0x000000000051be84                pthread_mutexattr_getprotocol
 ** zero fill   0x000000000051be8d        0x3
 .text.pthread_mutexattr_getpshared
                0x000000000051be90        0xd 0x1 /usr/local/popcorn/x86_64/lib/libc.a(pthread_attr_get.o)
                0x000000000051be90                pthread_mutexattr_getpshared
 ** zero fill   0x000000000051be9d        0x7
 .text.pthread_mutexattr_getrobust
                0x000000000051bea4        0xd 0x1 /usr/local/popcorn/x86_64/lib/libc.a(pthread_attr_get.o)
                0x000000000051bea4                pthread_mutexattr_getrobust
 ** zero fill   0x000000000051beb1        0x7
 .text.pthread_mutexattr_gettype
                0x000000000051beb8        0xa 0x1 /usr/local/popcorn/x86_64/lib/libc.a(pthread_attr_get.o)
                0x000000000051beb8                pthread_mutexattr_gettype
 ** zero fill   0x000000000051bec2        0xa
 .text.pthread_rwlockattr_getpshared
                0x000000000051becc        0x7 0x1 /usr/local/popcorn/x86_64/lib/libc.a(pthread_attr_get.o)
                0x000000000051becc                pthread_rwlockattr_getpshared
 ** zero fill   0x000000000051bed3        0x9
 .text.pthread_getattr_np
                0x000000000051bedc       0xe2 0x1 /usr/local/popcorn/x86_64/lib/libc.a(pthread_getattr_np.o)
                0x000000000051bedc                pthread_getattr_np
 ** zero fill   0x000000000051bfbe        0xa
 .text.pthread_set_migrate_args
                0x000000000051bfc8       0x11 0x1 /usr/local/popcorn/x86_64/lib/libc.a(pthread_migrate.o)
                0x000000000051bfc8                pthread_set_migrate_args
 ** zero fill   0x000000000051bfd9        0x3
 .text.pthread_get_migrate_args
                0x000000000051bfdc       0x11 0x1 /usr/local/popcorn/x86_64/lib/libc.a(pthread_migrate.o)
                0x000000000051bfdc                pthread_get_migrate_args
 ** zero fill   0x000000000051bfed        0x3
 .text.__pthread_self_internal
                0x000000000051bff0        0xa 0x1 /usr/local/popcorn/x86_64/lib/libc.a(pthread_self.o)
                0x000000000051bff0                pthread_self
                0x000000000051bff0                thrd_current
 ** zero fill   0x000000000051bffa        0x2
 .text.dummy    0x000000000051bffc        0x3 0x1 /usr/local/popcorn/x86_64/lib/libc.a(close.o)
 ** zero fill   0x000000000051bfff        0x1
 .text.close    0x000000000051c000       0x3f 0x1 /usr/local/popcorn/x86_64/lib/libc.a(close.o)
                0x000000000051c000                close
 ** zero fill   0x000000000051c03f        0x5
 .text.getpid   0x000000000051c044        0x8 0x1 /usr/local/popcorn/x86_64/lib/libc.a(getpid.o)
                0x000000000051c044                getpid
 ** zero fill   0x000000000051c04c        0x4
 .text.lseek    0x000000000051c050       0x15 0x1 /usr/local/popcorn/x86_64/lib/libc.a(lseek.o)
                0x000000000051c050                lseek
                0x000000000051c050                lseek64
 ** zero fill   0x000000000051c065        0x3
 .text.read     0x000000000051c068       0x2e 0x1 /usr/local/popcorn/x86_64/lib/libc.a(read.o)
                0x000000000051c068                read
 ** zero fill   0x000000000051c096        0xa
 .text.abort    0x000000000051c0a0       0x27 0x1 /usr/local/popcorn/x86_64/lib/libc.a(abort.o)
                0x000000000051c0a0                abort
 ** zero fill   0x000000000051c0c7        0xd
 ** zero fill   0x000000000051c0d4        0xc
 .text.__floatscan
                0x000000000051c0e0     0x171c 0x10 /usr/local/popcorn/x86_64/lib/libc.a(floatscan.o)
                0x000000000051c0e0                __floatscan
 ** zero fill   0x000000000051d7fc        0x4
 .text.scanexp  0x000000000051d800      0x1c6 0x10 /usr/local/popcorn/x86_64/lib/libc.a(floatscan.o)
 ** zero fill   0x000000000051d9c6       0x56
 ** zero fill   0x000000000051da1c        0x4
 .text.__intscan
                0x000000000051da20      0x5ce 0x10 /usr/local/popcorn/x86_64/lib/libc.a(intscan.o)
                0x000000000051da20                __intscan
 ** zero fill   0x000000000051dfee        0x2
 .text.__shlim  0x000000000051dff0       0x39 0x10 /usr/local/popcorn/x86_64/lib/libc.a(shgetc.o)
                0x000000000051dff0                __shlim
 ** zero fill   0x000000000051e029        0x7
 .text.__shgetc
                0x000000000051e030       0xa3 0x10 /usr/local/popcorn/x86_64/lib/libc.a(shgetc.o)
                0x000000000051e030                __shgetc
 ** zero fill   0x000000000051e0d3       0x19
 ** zero fill   0x000000000051e0ec        0x4
 .text.__syscall
                0x000000000051e0f0       0x1a 0x1 /usr/local/popcorn/x86_64/lib/libc.a(syscall.o)
                0x000000000051e0f0                __syscall
 ** zero fill   0x000000000051e10a        0xe
 ** zero fill   0x000000000051e118        0x8
 .text.__expand_heap
                0x000000000051e120      0x14a 0x10 /usr/local/popcorn/x86_64/lib/libc.a(expand_heap.o)
                0x000000000051e120                __expand_heap
 ** zero fill   0x000000000051e26a       0x2e
 ** zero fill   0x000000000051e298        0x8
 .text.__expand_heap_node
                0x000000000051e2a0      0x1e9 0x10 /usr/local/popcorn/x86_64/lib/libc.a(expand_heap.o)
                0x000000000051e2a0                __expand_heap_node
 ** zero fill   0x000000000051e489       0x4f
 ** zero fill   0x000000000051e4d8        0x8
 .text.popcorn_get_arena
                0x000000000051e4e0       0xf5 0x10 /usr/local/popcorn/x86_64/lib/libc.a(expand_heap.o)
                0x000000000051e4e0                popcorn_get_arena
 ** zero fill   0x000000000051e5d5       0x33
 .text.copysignl
                0x000000000051e608       0x2c 0x1 /usr/local/popcorn/x86_64/lib/libc.a(copysignl.o)
                0x000000000051e608                copysignl
 .text.scalbn   0x000000000051e634       0x8e 0x1 /usr/local/popcorn/x86_64/lib/libc.a(scalbn.o)
                0x000000000051e634                scalbn
 ** zero fill   0x000000000051e6c2        0x2
 .text.scalbnl  0x000000000051e6c4       0x93 0x1 /usr/local/popcorn/x86_64/lib/libc.a(scalbnl.o)
                0x000000000051e6c4                scalbnl
 ** zero fill   0x000000000051e757       0x41
 .text.fabs     0x000000000051e798       0x12 0x1 /usr/local/popcorn/x86_64/lib/libc.a(fabs.o)
                0x000000000051e798                fabs
 ** zero fill   0x000000000051e7aa        0x2
 .text.fmodl    0x000000000051e7ac       0x14 0x1 /usr/local/popcorn/x86_64/lib/libc.a(fmodl.o)
                0x000000000051e7ac                fmodl
 ** zero fill   0x000000000051e7c0      0x240
 .text.mbrtowc  0x000000000051ea00      0x134 0x1 /usr/local/popcorn/x86_64/lib/libc.a(mbrtowc.o)
                0x000000000051ea00                mbrtowc
 ** zero fill   0x000000000051eb34       0x10
 .text.mbsinit  0x000000000051eb44       0x11 0x1 /usr/local/popcorn/x86_64/lib/libc.a(mbsinit.o)
                0x000000000051eb44                mbsinit
 ** zero fill   0x000000000051eb55        0xb
 .text.__block_all_sigs
                0x000000000051eb60       0x1b 0x1 /usr/local/popcorn/x86_64/lib/libc.a(block.o)
                0x000000000051eb60                __block_all_sigs
 ** zero fill   0x000000000051eb7b        0x9
 .text.__block_app_sigs
                0x000000000051eb84       0x1b 0x1 /usr/local/popcorn/x86_64/lib/libc.a(block.o)
                0x000000000051eb84                __block_app_sigs
 ** zero fill   0x000000000051eb9f        0x9
 .text.__restore_sigs
                0x000000000051eba8       0x1b 0x1 /usr/local/popcorn/x86_64/lib/libc.a(block.o)
                0x000000000051eba8                __restore_sigs
 ** zero fill   0x000000000051ebc3        0x5
 .text.raise    0x000000000051ebc8       0x4d 0x1 /usr/local/popcorn/x86_64/lib/libc.a(raise.o)
                0x000000000051ebc8                raise
 ** zero fill   0x000000000051ec15        0xb
 .text.__fdopen
                0x000000000051ec20      0x182 0x1 /usr/local/popcorn/x86_64/lib/libc.a(__fdopen.o)
                0x000000000051ec20                __fdopen
                0x000000000051ec20                fdopen
 ** zero fill   0x000000000051eda2       0x32
 .text.__fmodeflags
                0x000000000051edd4       0x8d 0x1 /usr/local/popcorn/x86_64/lib/libc.a(__fmodeflags.o)
                0x000000000051edd4                __fmodeflags
 ** zero fill   0x000000000051ee61        0x7
 .text.__stdio_read
                0x000000000051ee68       0xb1 0x1 /usr/local/popcorn/x86_64/lib/libc.a(__stdio_read.o)
                0x000000000051ee68                __stdio_read
 ** zero fill   0x000000000051ef19       0x2f
 .text.__string_read
                0x000000000051ef48       0x79 0x1 /usr/local/popcorn/x86_64/lib/libc.a(__string_read.o)
                0x000000000051ef48                __string_read
 ** zero fill   0x000000000051efc1        0xb
 .text.__uflow  0x000000000051efcc       0x38 0x1 /usr/local/popcorn/x86_64/lib/libc.a(__uflow.o)
                0x000000000051efcc                __uflow
 ** zero fill   0x000000000051f004       0x1c
 .text.fputc    0x000000000051f020       0x9c 0x1 /usr/local/popcorn/x86_64/lib/libc.a(fputc.o)
                0x000000000051f020                fputc
 ** zero fill   0x000000000051f0bc       0x38
 .text.getdelim
                0x000000000051f0f4      0x25d 0x1 /usr/local/popcorn/x86_64/lib/libc.a(getdelim.o)
                0x000000000051f0f4                __getdelim
                0x000000000051f0f4                getdelim
 ** zero fill   0x000000000051f351       0x13
 .text.__ofl_add
                0x000000000051f364       0x29 0x1 /usr/local/popcorn/x86_64/lib/libc.a(ofl_add.o)
                0x000000000051f364                __ofl_add
 ** zero fill   0x000000000051f38d       0x17
 .text.__overflow
                0x000000000051f3a4       0x82 0x1 /usr/local/popcorn/x86_64/lib/libc.a(__overflow.o)
                0x000000000051f3a4                __overflow
 ** zero fill   0x000000000051f426       0x26
 .text.__toread
                0x000000000051f44c       0x6f 0x1 /usr/local/popcorn/x86_64/lib/libc.a(__toread.o)
                0x000000000051f44c                __toread
 ** zero fill   0x000000000051f4bb       0x19
 .text.__toread_needs_stdio_exit
                0x000000000051f4d4        0x5 0x1 /usr/local/popcorn/x86_64/lib/libc.a(__toread.o)
                0x000000000051f4d4                __toread_needs_stdio_exit
 .text.memmove  0x000000000051f4d9       0x25 0x1 /usr/local/popcorn/x86_64/lib/libc.a(memmove.o)
                0x000000000051f4d9                memmove
 ** zero fill   0x000000000051f4fe        0x2
 ** zero fill   0x000000000051f500      0x138
 ** zero fill   0x000000000051f638      0x138
 ** zero fill   0x000000000051f770        0x8
 .text          0x000000000051f778        0x0 0x4 popcorn-hello_x86_64.o
 .text          0x000000000051f778       0x16 0x4 /usr/local/popcorn/x86_64/lib/crt1.o
                0x000000000051f778                _start
 .text          0x000000000051f790        0x0 0x4 /usr/local/popcorn/x86_64/lib/libc.a(__libc_start_main.o)
 .text          0x000000000051f790        0x0 0x4 /usr/local/popcorn/x86_64/lib/libc.a(exit.o)
 .text          0x000000000051f790        0x0 0x4 /usr/local/popcorn/x86_64/lib/libc.a(libc.o)
 .text          0x000000000051f790        0x0 0x4 /usr/local/popcorn/x86_64/lib/libc.a(printf.o)
 .text          0x000000000051f790        0x0 0x4 /usr/local/popcorn/x86_64/lib/libc.a(stdout.o)
 .text          0x000000000051f790        0x0 0x4 /usr/local/popcorn/x86_64/lib/libc.a(vfprintf.o)
 .text          0x000000000051f790        0x0 0x4 /usr/local/popcorn/x86_64/lib/libc.a(strnlen.o)
 .text          0x000000000051f790        0x0 0x4 /usr/local/popcorn/x86_64/lib/libc.a(memset.o)
 .text          0x000000000051f790        0x0 0x4 /usr/local/popcorn/x86_64/lib/libc.a(__environ.o)
 .text          0x000000000051f790        0x0 0x4 /usr/local/popcorn/x86_64/lib/libc.a(__init_tls.o)
 .text          0x000000000051f790        0x0 0x4 /usr/local/popcorn/x86_64/lib/libc.a(__errno_location.o)
 .text          0x000000000051f790        0x0 0x4 /usr/local/popcorn/x86_64/lib/libc.a(strerror.o)
 .text          0x000000000051f790        0x0 0x4 /usr/local/popcorn/x86_64/lib/libc.a(_Exit.o)
 .text          0x000000000051f790        0x0 0x4 /usr/local/popcorn/x86_64/lib/libc.a(__lctrans.o)
 .text          0x000000000051f790        0x0 0x4 /usr/local/popcorn/x86_64/lib/libc.a(__fpclassifyl.o)
 .text          0x000000000051f790        0x0 0x4 /usr/local/popcorn/x86_64/lib/libc.a(__signbitl.o)
 .text          0x000000000051f790        0x0 0x4 /usr/local/popcorn/x86_64/lib/libc.a(frexpl.o)
 .text          0x000000000051f790        0x0 0x4 /usr/local/popcorn/x86_64/lib/libc.a(wctomb.o)
 .text          0x000000000051f790        0x0 0x4 /usr/local/popcorn/x86_64/lib/libc.a(__lockfile.o)
 .text          0x000000000051f790        0x0 0x4 /usr/local/popcorn/x86_64/lib/libc.a(__stdio_close.o)
 .text          0x000000000051f790        0x0 0x4 /usr/local/popcorn/x86_64/lib/libc.a(__stdio_seek.o)
 .text          0x000000000051f790        0x0 0x4 /usr/local/popcorn/x86_64/lib/libc.a(__stdout_write.o)
 .text          0x000000000051f790        0x0 0x4 /usr/local/popcorn/x86_64/lib/libc.a(fwrite.o)
 .text          0x000000000051f790        0x0 0x4 /usr/local/popcorn/x86_64/lib/libc.a(memchr.o)
 .text          0x000000000051f790        0x0 0x4 /usr/local/popcorn/x86_64/lib/libc.a(memcpy.o)
 .text          0x000000000051f790        0x0 0x4 /usr/local/popcorn/x86_64/lib/libc.a(__wait.o)
 .text          0x000000000051f790        0x0 0x4 /usr/local/popcorn/x86_64/lib/libc.a(__set_thread_area.o)
 .text          0x000000000051f790        0x0 0x4 /usr/local/popcorn/x86_64/lib/libc.a(syscall_ret.o)
 .text          0x000000000051f790        0x0 0x4 /usr/local/popcorn/x86_64/lib/libc.a(wcrtomb.o)
 .text          0x000000000051f790        0x0 0x4 /usr/local/popcorn/x86_64/lib/libc.a(__stdio_write.o)
 .text          0x000000000051f790        0x0 0x4 /usr/local/popcorn/x86_64/lib/libc.a(__towrite.o)
 .text          0x000000000051f790        0x0 0x4 /usr/local/popcorn/x86_64/lib/libc.a(__stdio_exit.o)
 .text          0x000000000051f790        0x0 0x4 /usr/local/popcorn/x86_64/lib/libc.a(ofl.o)
 .text          0x000000000051f790        0x0 0x4 /usr/local/popcorn/x86_64/lib/libc.a(__lock.o)
 .text          0x000000000051f790        0x0 0x4 /usr/local/popcorn/x86_64/lib/libmigrate.a(migrate.o)
 .text          0x000000000051f790        0x0 0x4 /usr/local/popcorn/x86_64/lib/libmigrate.a(trigger.o)
 .text          0x000000000051f790        0x0 0x1 /usr/local/popcorn/x86_64/lib/libmigrate.a(migrate_x86_64.o)
 .text          0x000000000051f790        0x0 0x1 /usr/local/popcorn/x86_64/lib/libmigrate.a(migrate_aarch64.o)
 .text          0x000000000051f790        0x0 0x1 /usr/local/popcorn/x86_64/lib/libmigrate.a(migrate_powerpc64.o)
 .text          0x000000000051f790        0x0 0x4 /usr/local/popcorn/x86_64/lib/libmigrate.a(mapping.o)
 .text          0x000000000051f790        0x0 0x4 /usr/local/popcorn/x86_64/lib/libstack-transform.a(userspace.o)
 .text          0x000000000051f790        0x0 0x4 /usr/local/popcorn/x86_64/lib/libstack-transform.a(init.o)
 .text          0x000000000051f790        0x0 0x4 /usr/local/popcorn/x86_64/lib/libstack-transform.a(rewrite.o)
 .text          0x000000000051f790        0x0 0x4 /usr/local/popcorn/x86_64/lib/libstack-transform.a(unwind.o)
 .text          0x000000000051f790        0x0 0x4 /usr/local/popcorn/x86_64/lib/libstack-transform.a(util.o)
 .text          0x000000000051f790        0x0 0x4 /usr/local/popcorn/x86_64/lib/libstack-transform.a(properties.o)
 .text          0x000000000051f790        0x0 0x4 /usr/local/popcorn/x86_64/lib/libstack-transform.a(regs.o)
 .text          0x000000000051f790        0x0 0x4 /usr/local/popcorn/x86_64/lib/libstack-transform.a(properties.o)
 .text          0x000000000051f790        0x0 0x4 /usr/local/popcorn/x86_64/lib/libstack-transform.a(regs.o)
 .text          0x000000000051f790        0x0 0x4 /usr/local/popcorn/x86_64/lib/libstack-transform.a(properties.o)
 .text          0x000000000051f790        0x0 0x4 /usr/local/popcorn/x86_64/lib/libstack-transform.a(regs.o)
 .text          0x000000000051f790        0x0 0x4 /usr/local/popcorn/x86_64/lib/libstack-transform.a(data.o)
 .text          0x000000000051f790        0x0 0x4 /usr/local/popcorn/x86_64/lib/libelf.a(begin.o)
 .text          0x000000000051f790        0x0 0x4 /usr/local/popcorn/x86_64/lib/libelf.a(end.o)
 .text          0x000000000051f790        0x0 0x4 /usr/local/popcorn/x86_64/lib/libelf.a(getdata.o)
 .text          0x000000000051f790        0x0 0x4 /usr/local/popcorn/x86_64/lib/libelf.a(getident.o)
 .text          0x000000000051f790        0x0 0x4 /usr/local/popcorn/x86_64/lib/libelf.a(nextscn.o)
 .text          0x000000000051f790        0x0 0x4 /usr/local/popcorn/x86_64/lib/libelf.a(strptr.o)
 .text          0x000000000051f790        0x0 0x4 /usr/local/popcorn/x86_64/lib/libelf.a(version.o)
 .text          0x000000000051f790        0x0 0x4 /usr/local/popcorn/x86_64/lib/libelf.a(32.getehdr.o)
 .text          0x000000000051f790        0x0 0x4 /usr/local/popcorn/x86_64/lib/libelf.a(32.xlatetof.o)
 .text          0x000000000051f790        0x0 0x4 /usr/local/popcorn/x86_64/lib/libelf.a(cook.o)
 .text          0x000000000051f790        0x0 0x4 /usr/local/popcorn/x86_64/lib/libelf.a(data.o)
 .text          0x000000000051f790        0x0 0x4 /usr/local/popcorn/x86_64/lib/libelf.a(input.o)
 .text          0x000000000051f790        0x0 0x4 /usr/local/popcorn/x86_64/lib/libelf.a(x.elfext.o)
 .text          0x000000000051f790        0x0 0x4 /usr/local/popcorn/x86_64/lib/libelf.a(64.xlatetof.o)
 .text          0x000000000051f790        0x0 0x4 /usr/local/popcorn/x86_64/lib/libelf.a(gelfshdr.o)
 .text          0x000000000051f790        0x0 0x4 /usr/local/popcorn/x86_64/lib/libelf.a(swap64.o)
 .text          0x000000000051f790        0x0 0x4 /usr/local/popcorn/x86_64/lib/libelf.a(verdef_32_tof.o)
 .text          0x000000000051f790        0x0 0x4 /usr/local/popcorn/x86_64/lib/libelf.a(verdef_32_tom.o)
 .text          0x000000000051f790        0x0 0x4 /usr/local/popcorn/x86_64/lib/libelf.a(verdef_64_tof.o)
 .text          0x000000000051f790        0x0 0x4 /usr/local/popcorn/x86_64/lib/libelf.a(verdef_64_tom.o)
 .text          0x000000000051f790        0x0 0x4 /usr/local/popcorn/x86_64/lib/libelf.a(getscn.o)
 .text          0x000000000051f790        0x0 0x4 /usr/local/popcorn/x86_64/lib/libelf.a(newscn.o)
 .text          0x000000000051f790        0x0 0x4 /usr/local/popcorn/x86_64/lib/libelf.a(32.fsize.o)
 .text          0x000000000051f790        0x0 0x4 /usr/local/popcorn/x86_64/lib/libc.a(arch_crash.o)
 .text          0x000000000051f790        0x0 0x4 /usr/local/popcorn/x86_64/lib/libc.a(getenv.o)
 .text          0x000000000051f790        0x0 0x4 /usr/local/popcorn/x86_64/lib/libc.a(platform.o)
 .text          0x000000000051f790        0x0 0x4 /usr/local/popcorn/x86_64/lib/libc.a(assert.o)
 .text          0x000000000051f790        0x0 0x4 /usr/local/popcorn/x86_64/lib/libc.a(open.o)
 .text          0x000000000051f790        0x0 0x4 /usr/local/popcorn/x86_64/lib/libc.a(calloc.o)
 .text          0x000000000051f790        0x0 0x4 /usr/local/popcorn/x86_64/lib/libc.a(lite_malloc.o)
 .text          0x000000000051f790        0x0 0x4 /usr/local/popcorn/x86_64/lib/libc.a(malloc.o)
 .text          0x000000000051f790        0x0 0x4 /usr/local/popcorn/x86_64/lib/libc.a(popcorn_malloc.o)
 .text          0x000000000051f790        0x0 0x4 /usr/local/popcorn/x86_64/lib/libc.a(getrlimit.o)
 .text          0x000000000051f790        0x0 0x4 /usr/local/popcorn/x86_64/lib/libc.a(syscall.o)
 .text          0x000000000051f790        0x0 0x4 /usr/local/popcorn/x86_64/lib/libc.a(madvise.o)
 .text          0x000000000051f790        0x0 0x4 /usr/local/popcorn/x86_64/lib/libc.a(mmap.o)
 .text          0x000000000051f790        0x0 0x4 /usr/local/popcorn/x86_64/lib/libc.a(mremap.o)
 .text          0x000000000051f790        0x0 0x4 /usr/local/popcorn/x86_64/lib/libc.a(munmap.o)
 .text          0x000000000051f790        0x0 0x4 /usr/local/popcorn/x86_64/lib/libc.a(sigaction.o)
 .text          0x000000000051f790        0x0 0x4 /usr/local/popcorn/x86_64/lib/libc.a(sigemptyset.o)
 .text          0x000000000051f790        0x0 0x4 /usr/local/popcorn/x86_64/lib/libc.a(sigrtmin.o)
 .text          0x000000000051f790        0x0 0x4 /usr/local/popcorn/x86_64/lib/libc.a(restore.o)
 .text          0x000000000051f790        0x0 0x4 /usr/local/popcorn/x86_64/lib/libc.a(fclose.o)
 .text          0x000000000051f790        0x0 0x4 /usr/local/popcorn/x86_64/lib/libc.a(fflush.o)
 .text          0x000000000051f790        0x0 0x4 /usr/local/popcorn/x86_64/lib/libc.a(fopen.o)
 .text          0x000000000051f790        0x0 0x4 /usr/local/popcorn/x86_64/lib/libc.a(fprintf.o)
 .text          0x000000000051f790        0x0 0x4 /usr/local/popcorn/x86_64/lib/libc.a(fscanf.o)
 .text          0x000000000051f790        0x0 0x4 /usr/local/popcorn/x86_64/lib/libc.a(fseek.o)
 .text          0x000000000051f790        0x0 0x4 /usr/local/popcorn/x86_64/lib/libc.a(getc.o)
 .text          0x000000000051f790        0x0 0x4 /usr/local/popcorn/x86_64/lib/libc.a(getline.o)
 .text          0x000000000051f790        0x0 0x4 /usr/local/popcorn/x86_64/lib/libc.a(perror.o)
 .text          0x000000000051f790        0x0 0x4 /usr/local/popcorn/x86_64/lib/libc.a(snprintf.o)
 .text          0x000000000051f790        0x0 0x4 /usr/local/popcorn/x86_64/lib/libc.a(sscanf.o)
 .text          0x000000000051f790        0x0 0x4 /usr/local/popcorn/x86_64/lib/libc.a(stderr.o)
 .text          0x000000000051f790        0x0 0x4 /usr/local/popcorn/x86_64/lib/libc.a(vfscanf.o)
 .text          0x000000000051f790        0x0 0x4 /usr/local/popcorn/x86_64/lib/libc.a(vsnprintf.o)
 .text          0x000000000051f790        0x0 0x4 /usr/local/popcorn/x86_64/lib/libc.a(vsscanf.o)
 .text          0x000000000051f790        0x0 0x4 /usr/local/popcorn/x86_64/lib/libc.a(bsearch.o)
 .text          0x000000000051f790        0x0 0x4 /usr/local/popcorn/x86_64/lib/libc.a(qsort.o)
 .text          0x000000000051f790        0x0 0x4 /usr/local/popcorn/x86_64/lib/libc.a(strtol.o)
 .text          0x000000000051f790        0x0 0x4 /usr/local/popcorn/x86_64/lib/libc.a(strchr.o)
 .text          0x000000000051f790        0x0 0x4 /usr/local/popcorn/x86_64/lib/libc.a(strchrnul.o)
 .text          0x000000000051f790        0x0 0x4 /usr/local/popcorn/x86_64/lib/libc.a(strcmp.o)
 .text          0x000000000051f790        0x0 0x4 /usr/local/popcorn/x86_64/lib/libc.a(strlen.o)
 .text          0x000000000051f790        0x0 0x4 /usr/local/popcorn/x86_64/lib/libc.a(strncmp.o)
 .text          0x000000000051f790        0x0 0x4 /usr/local/popcorn/x86_64/lib/libc.a(memmove.o)
 .text          0x000000000051f790        0x0 0x4 /usr/local/popcorn/x86_64/lib/libc.a(__syscall_cp.o)
 .text          0x000000000051f790        0x0 0x4 /usr/local/popcorn/x86_64/lib/libc.a(pthread_attr_get.o)
 .text          0x000000000051f790        0x0 0x4 /usr/local/popcorn/x86_64/lib/libc.a(pthread_getattr_np.o)
 .text          0x000000000051f790        0x0 0x4 /usr/local/popcorn/x86_64/lib/libc.a(pthread_migrate.o)
 .text          0x000000000051f790        0x0 0x4 /usr/local/popcorn/x86_64/lib/libc.a(pthread_self.o)
 .text          0x000000000051f790        0x0 0x4 /usr/local/popcorn/x86_64/lib/libc.a(close.o)
 .text          0x000000000051f790        0x0 0x4 /usr/local/popcorn/x86_64/lib/libc.a(getpid.o)
 .text          0x000000000051f790        0x0 0x4 /usr/local/popcorn/x86_64/lib/libc.a(lseek.o)
 .text          0x000000000051f790        0x0 0x4 /usr/local/popcorn/x86_64/lib/libc.a(read.o)
 .text          0x000000000051f790        0x0 0x4 /usr/local/popcorn/x86_64/lib/libc.a(abort.o)
 .text          0x000000000051f790        0x0 0x4 /usr/local/popcorn/x86_64/lib/libc.a(floatscan.o)
 .text          0x000000000051f790        0x0 0x4 /usr/local/popcorn/x86_64/lib/libc.a(intscan.o)
 .text          0x000000000051f790        0x0 0x4 /usr/local/popcorn/x86_64/lib/libc.a(shgetc.o)
 .text          0x000000000051f790        0x0 0x4 /usr/local/popcorn/x86_64/lib/libc.a(syscall.o)
 .text          0x000000000051f790        0x0 0x4 /usr/local/popcorn/x86_64/lib/libc.a(expand_heap.o)
 .text          0x000000000051f790        0x0 0x4 /usr/local/popcorn/x86_64/lib/libc.a(copysignl.o)
 .text          0x000000000051f790        0x0 0x4 /usr/local/popcorn/x86_64/lib/libc.a(scalbn.o)
 .text          0x000000000051f790        0x0 0x4 /usr/local/popcorn/x86_64/lib/libc.a(scalbnl.o)
 .text          0x000000000051f790        0x0 0x4 /usr/local/popcorn/x86_64/lib/libc.a(fabs.o)
 .text          0x000000000051f790        0x0 0x4 /usr/local/popcorn/x86_64/lib/libc.a(fmodl.o)
 .text          0x000000000051f790        0x0 0x4 /usr/local/popcorn/x86_64/lib/libc.a(mbrtowc.o)
 .text          0x000000000051f790        0x0 0x4 /usr/local/popcorn/x86_64/lib/libc.a(mbsinit.o)
 .text          0x000000000051f790        0x0 0x4 /usr/local/popcorn/x86_64/lib/libc.a(block.o)
 .text          0x000000000051f790        0x0 0x4 /usr/local/popcorn/x86_64/lib/libc.a(raise.o)
 .text          0x000000000051f790        0x0 0x4 /usr/local/popcorn/x86_64/lib/libc.a(__fdopen.o)
 .text          0x000000000051f790        0x0 0x4 /usr/local/popcorn/x86_64/lib/libc.a(__fmodeflags.o)
 .text          0x000000000051f790        0x0 0x4 /usr/local/popcorn/x86_64/lib/libc.a(__stdio_read.o)
 .text          0x000000000051f790        0x0 0x4 /usr/local/popcorn/x86_64/lib/libc.a(__string_read.o)
 .text          0x000000000051f790        0x0 0x4 /usr/local/popcorn/x86_64/lib/libc.a(__uflow.o)
 .text          0x000000000051f790        0x0 0x4 /usr/local/popcorn/x86_64/lib/libc.a(fputc.o)
 .text          0x000000000051f790        0x0 0x4 /usr/local/popcorn/x86_64/lib/libc.a(getdelim.o)
 .text          0x000000000051f790        0x0 0x4 /usr/local/popcorn/x86_64/lib/libc.a(ofl_add.o)
 .text          0x000000000051f790        0x0 0x4 /usr/local/popcorn/x86_64/lib/libc.a(internal.o)
 .text          0x000000000051f790        0x0 0x4 /usr/local/popcorn/x86_64/lib/libc.a(__overflow.o)
 .text          0x000000000051f790        0x0 0x4 /usr/local/popcorn/x86_64/lib/libc.a(__toread.o)

.rodata         0x0000000000600000     0x45d2
 ** zero fill   0x0000000000600000        0x1
 ** zero fill   0x0000000000600001      0xfff
 .rodata.popcorn_hello__str_hello__wor
                0x0000000000601000       0x18 0x1 popcorn-hello_x86_64.o
                0x0000000000601000                popcorn_hello__str_hello__wor
 .rodata.src_env___libc_start_main__str_
                0x0000000000601018        0x1 0x1 /usr/local/popcorn/x86_64/lib/libc.a(__libc_start_main.o)
                0x0000000000601018                src_env___libc_start_main__str_
 ** zero fill   0x0000000000601019        0x7
 .rodata.src_env___libc_start_main___init_libc_pfd_
                0x0000000000601020       0x18 0x10 /usr/local/popcorn/x86_64/lib/libc.a(__libc_start_main.o)
                0x0000000000601020                src_env___libc_start_main___init_libc_pfd_
 .rodata.src_env___libc_start_main__str_1__dev_null_
                0x0000000000601038        0xa 0x1 /usr/local/popcorn/x86_64/lib/libc.a(__libc_start_main.o)
                0x0000000000601038                src_env___libc_start_main__str_1__dev_null_
 ** zero fill   0x0000000000601042        0x6
 .rodata.stdout
                0x0000000000601048        0x8 0x8 /usr/local/popcorn/x86_64/lib/libc.a(stdout.o)
                0x0000000000601048                stdout
 .rodata.printf_core
                0x0000000000601050      0x170 0x8 /usr/local/popcorn/x86_64/lib/libc.a(vfprintf.o)
 .rodata.pop_arg
                0x00000000006011c0       0x90 0x8 /usr/local/popcorn/x86_64/lib/libc.a(vfprintf.o)
 .rodata.src_stdio_vfprintf_c_states
                0x0000000000601250      0x1d0 0x10 /usr/local/popcorn/x86_64/lib/libc.a(vfprintf.o)
 .rodata.src_stdio_vfprintf__str______0X0x_
                0x0000000000601420        0xa 0x1 /usr/local/popcorn/x86_64/lib/libc.a(vfprintf.o)
                0x0000000000601420                src_stdio_vfprintf__str______0X0x_
 .rodata.src_stdio_vfprintf__str_1__null__
                0x000000000060142a        0x7 0x1 /usr/local/popcorn/x86_64/lib/libc.a(vfprintf.o)
                0x000000000060142a                src_stdio_vfprintf__str_1__null__
 ** zero fill   0x0000000000601431        0xf
 .rodata.src_stdio_vfprintf_c_xdigits
                0x0000000000601440       0x10 0x10 /usr/local/popcorn/x86_64/lib/libc.a(vfprintf.o)
 .rodata.src_stdio_vfprintf__str_2__0X_0X_0X_
                0x0000000000601450       0x13 0x1 /usr/local/popcorn/x86_64/lib/libc.a(vfprintf.o)
                0x0000000000601450                src_stdio_vfprintf__str_2__0X_0X_0X_
 .rodata.src_stdio_vfprintf__str_3_inf_
                0x0000000000601463        0x4 0x1 /usr/local/popcorn/x86_64/lib/libc.a(vfprintf.o)
                0x0000000000601463                src_stdio_vfprintf__str_3_inf_
 .rodata.src_stdio_vfprintf__str_4_INF_
                0x0000000000601467        0x4 0x1 /usr/local/popcorn/x86_64/lib/libc.a(vfprintf.o)
                0x0000000000601467                src_stdio_vfprintf__str_4_INF_
 .rodata.src_stdio_vfprintf__str_5_nan_
                0x000000000060146b        0x4 0x1 /usr/local/popcorn/x86_64/lib/libc.a(vfprintf.o)
                0x000000000060146b                src_stdio_vfprintf__str_5_nan_
 .rodata.src_stdio_vfprintf__str_6_NAN_
                0x000000000060146f        0x4 0x1 /usr/local/popcorn/x86_64/lib/libc.a(vfprintf.o)
                0x000000000060146f                src_stdio_vfprintf__str_6_NAN_
 .rodata.src_stdio_vfprintf__str_7___
                0x0000000000601473        0x2 0x1 /usr/local/popcorn/x86_64/lib/libc.a(vfprintf.o)
                0x0000000000601473                src_stdio_vfprintf__str_7___
 ** zero fill   0x0000000000601475        0xb
 .rodata.src_errno_strerror_c_errid
                0x0000000000601480       0x58 0x10 /usr/local/popcorn/x86_64/lib/libc.a(strerror.o)
 ** zero fill   0x00000000006014d8        0x8
 .rodata.src_errno_strerror_c_errmsg
                0x00000000006014e0      0x70c 0x10 /usr/local/popcorn/x86_64/lib/libc.a(strerror.o)
 .rodata.src_migrate__str_Destinatio
                0x0000000000601bec       0x24 0x1 /usr/local/popcorn/x86_64/lib/libmigrate.a(migrate.o)
                0x0000000000601bec                src_migrate__str_Destinatio
 .rodata.src_migrate__str_1_0_____Unsu
                0x0000000000601c10       0x21 0x1 /usr/local/popcorn/x86_64/lib/libmigrate.a(migrate.o)
                0x0000000000601c10                src_migrate__str_1_0_____Unsu
 .rodata.src_migrate__str_2_src_migrat
                0x0000000000601c31        0xe 0x1 /usr/local/popcorn/x86_64/lib/libmigrate.a(migrate.o)
                0x0000000000601c31                src_migrate__str_2_src_migrat
 .rodata.src_migrate___func_____migrate_shim_internal___migrate_
                0x0000000000601c3f       0x18 0x1 /usr/local/popcorn/x86_64/lib/libmigrate.a(migrate.o)
                0x0000000000601c3f                src_migrate___func_____migrate_shim_internal___migrate_
 .rodata.src_migrate__str_3_Could_not_
                0x0000000000601c57       0x1a 0x1 /usr/local/popcorn/x86_64/lib/libmigrate.a(migrate.o)
                0x0000000000601c57                src_migrate__str_3_Could_not_
 .rodata.src_migrate__str_4_Could_not_
                0x0000000000601c71       0x1a 0x1 /usr/local/popcorn/x86_64/lib/libmigrate.a(migrate.o)
                0x0000000000601c71                src_migrate__str_4_Could_not_
 .rodata.src_migrate___func___get_thread_pointer_get_thread
                0x0000000000601c8b       0x13 0x1 /usr/local/popcorn/x86_64/lib/libmigrate.a(migrate.o)
                0x0000000000601c8b                src_migrate___func___get_thread_pointer_get_thread
 .rodata.src_trigger__str_Could_not_
                0x0000000000601c9e       0x34 0x1 /usr/local/popcorn/x86_64/lib/libmigrate.a(trigger.o)
                0x0000000000601c9e                src_trigger__str_Could_not_
 .rodata.src_trigger__str_1_Could_not_
                0x0000000000601cd2       0x3b 0x1 /usr/local/popcorn/x86_64/lib/libmigrate.a(trigger.o)
                0x0000000000601cd2                src_trigger__str_1_Could_not_
 .rodata.src_mapping__str_POPCORN_TH
                0x0000000000601d0d       0x18 0x1 /usr/local/popcorn/x86_64/lib/libmigrate.a(mapping.o)
                0x0000000000601d0d                src_mapping__str_POPCORN_TH
 .rodata.src_mapping__str_1_thread_sch
                0x0000000000601d25       0x14 0x1 /usr/local/popcorn/x86_64/lib/libmigrate.a(mapping.o)
                0x0000000000601d25                src_mapping__str_1_thread_sch
 .rodata.src_mapping__str_2_r_
                0x0000000000601d39        0x2 0x1 /usr/local/popcorn/x86_64/lib/libmigrate.a(mapping.o)
                0x0000000000601d39                src_mapping__str_2_r_
 .rodata.src_mapping__str_3__lu__lu_
                0x0000000000601d3b        0x8 0x1 /usr/local/popcorn/x86_64/lib/libmigrate.a(mapping.o)
                0x0000000000601d3b                src_mapping__str_3__lu__lu_
 .rodata.src_mapping__str_4__d_
                0x0000000000601d43        0x3 0x1 /usr/local/popcorn/x86_64/lib/libmigrate.a(mapping.o)
                0x0000000000601d43                src_mapping__str_4__d_
 .rodata.src_userspace__str_ST_AARCH64
                0x0000000000601d46        0xf 0x1 /usr/local/popcorn/x86_64/lib/libstack-transform.a(userspace.o)
                0x0000000000601d46                src_userspace__str_ST_AARCH64
 .rodata.src_userspace__str_1__s_aarch64
                0x0000000000601d55        0xb 0x1 /usr/local/popcorn/x86_64/lib/libstack-transform.a(userspace.o)
                0x0000000000601d55                src_userspace__str_1__s_aarch64
 .rodata.src_userspace__str_2_ST_POWERPC
                0x0000000000601d60       0x11 0x1 /usr/local/popcorn/x86_64/lib/libstack-transform.a(userspace.o)
                0x0000000000601d60                src_userspace__str_2_ST_POWERPC
 .rodata.src_userspace__str_3__s_powerpc
                0x0000000000601d71        0xd 0x1 /usr/local/popcorn/x86_64/lib/libstack-transform.a(userspace.o)
                0x0000000000601d71                src_userspace__str_3__s_powerpc
 .rodata.src_userspace__str_4_ST_X86_64_
                0x0000000000601d7e        0xe 0x1 /usr/local/popcorn/x86_64/lib/libstack-transform.a(userspace.o)
                0x0000000000601d7e                src_userspace__str_4_ST_X86_64_
 .rodata.src_userspace__str_5__s_x86_64_
                0x0000000000601d8c        0xa 0x1 /usr/local/popcorn/x86_64/lib/libstack-transform.a(userspace.o)
                0x0000000000601d8c                src_userspace__str_5__s_x86_64_
 .rodata.src_userspace__str_6__proc__d_m
                0x0000000000601d96        0xe 0x1 /usr/local/popcorn/x86_64/lib/libstack-transform.a(userspace.o)
                0x0000000000601d96                src_userspace__str_6__proc__d_m
 .rodata.src_userspace__str_7_r_
                0x0000000000601da4        0x2 0x1 /usr/local/popcorn/x86_64/lib/libstack-transform.a(userspace.o)
                0x0000000000601da4                src_userspace__str_7_r_
 .rodata.src_userspace__str_8__lx__lx__s
                0x0000000000601da6       0x19 0x1 /usr/local/popcorn/x86_64/lib/libstack-transform.a(userspace.o)
                0x0000000000601da6                src_userspace__str_8__lx__lx(short)
 .rodata.src_userspace__str_9__stack__
                0x0000000000601dbf        0x8 0x1 /usr/local/popcorn/x86_64/lib/libstack-transform.a(userspace.o)
                0x0000000000601dbf                src_userspace__str_9__stack__
 ** zero fill   0x0000000000601dc7        0x9
 .rodata.src_userspace_switch_table_10_
                0x0000000000601dd0       0x18 0x10 /usr/local/popcorn/x86_64/lib/libstack-transform.a(userspace.o)
                0x0000000000601dd0                src_userspace_switch_table_10_
 .rodata.src_init__str__stack_tra
                0x0000000000601de8       0x1f 0x1 /usr/local/popcorn/x86_64/lib/libstack-transform.a(init.o)
                0x0000000000601de8                src_init__str__stack_tra
 .rodata.src_init__str_1__stack_tra
                0x0000000000601e07       0x18 0x1 /usr/local/popcorn/x86_64/lib/libstack-transform.a(init.o)
                0x0000000000601e07                src_init__str_1__stack_tra
 .rodata.src_init__str_2__stack_tra
                0x0000000000601e1f       0x14 0x1 /usr/local/popcorn/x86_64/lib/libstack-transform.a(init.o)
                0x0000000000601e1f                src_init__str_2__stack_tra
 .rodata.src_init__str_3__stack_tra
                0x0000000000601e33       0x16 0x1 /usr/local/popcorn/x86_64/lib/libstack-transform.a(init.o)
                0x0000000000601e33                src_init__str_3__stack_tra
 .rodata.src_init__str_4__stack_tra
                0x0000000000601e49       0x16 0x1 /usr/local/popcorn/x86_64/lib/libstack-transform.a(init.o)
                0x0000000000601e49                src_init__str_4__stack_tra
 .rodata.src_init__str_5__stack_tra
                0x0000000000601e5f       0x1c 0x1 /usr/local/popcorn/x86_64/lib/libstack-transform.a(init.o)
                0x0000000000601e5f                src_init__str_5__stack_tra
 .rodata.src_rewrite__str__src_rewri
                0x0000000000601e7b       0x42 0x1 /usr/local/popcorn/x86_64/lib/libstack-transform.a(rewrite.o)
                0x0000000000601e7b                src_rewrite__str__src_rewri
 .rodata.src_rewrite__str_1__src_rewri
                0x0000000000601ebd       0x68 0x1 /usr/local/popcorn/x86_64/lib/libstack-transform.a(rewrite.o)
                0x0000000000601ebd                src_rewrite__str_1__src_rewri
 .rodata.src_rewrite__str_2__src_rewri
                0x0000000000601f25       0x54 0x1 /usr/local/popcorn/x86_64/lib/libstack-transform.a(rewrite.o)
                0x0000000000601f25                src_rewrite__str_2__src_rewri
 .rodata.src_rewrite__str_3__src_rewri
                0x0000000000601f79       0x61 0x1 /usr/local/popcorn/x86_64/lib/libstack-transform.a(rewrite.o)
                0x0000000000601f79                src_rewrite__str_3__src_rewri
 .rodata.src_util__str_aarch64_
                0x0000000000601fda        0x8 0x1 /usr/local/popcorn/x86_64/lib/libstack-transform.a(util.o)
                0x0000000000601fda                src_util__str_aarch64_
 .rodata.src_util__str_1_powerpc64_
                0x0000000000601fe2        0xa 0x1 /usr/local/popcorn/x86_64/lib/libstack-transform.a(util.o)
                0x0000000000601fe2                src_util__str_1_powerpc64_
 .rodata.src_util__str_2_x86_64_
                0x0000000000601fec        0x7 0x1 /usr/local/popcorn/x86_64/lib/libstack-transform.a(util.o)
                0x0000000000601fec                src_util__str_2_x86_64_
 .rodata.src_util__str_3_unknown_un
                0x0000000000601ff3       0x21 0x1 /usr/local/popcorn/x86_64/lib/libstack-transform.a(util.o)
                0x0000000000601ff3                src_util__str_3_unknown_un
 ** zero fill   0x0000000000602014        0xc
 .rodata.src_arch_aarch64_properties_c_callee_saved_aarch64
                0x0000000000602020       0x28 0x10 /usr/local/popcorn/x86_64/lib/libstack-transform.a(properties.o)
 ** zero fill   0x0000000000602048        0x8
 .rodata.src_arch_aarch64_properties_c_callee_saved_size_aarch64
                0x0000000000602050       0x28 0x10 /usr/local/popcorn/x86_64/lib/libstack-transform.a(properties.o)
 .rodata.properties_aarch64
                0x0000000000602078       0x38 0x8 /usr/local/popcorn/x86_64/lib/libstack-transform.a(properties.o)
                0x0000000000602078                properties_aarch64
 .rodata.src_arch_aarch64_properties__str__src_arch_
                0x00000000006020b0       0x51 0x1 /usr/local/popcorn/x86_64/lib/libstack-transform.a(properties.o)
                0x00000000006020b0                src_arch_aarch64_properties__str__src_arch_
 ** zero fill   0x0000000000602101        0x7
 .rodata.reg_aarch64
                0x0000000000602108      0x300 0x8 /usr/local/popcorn/x86_64/lib/libstack-transform.a(regs.o)
 .rodata.regs_aarch64
                0x0000000000602408       0xa8 0x8 /usr/local/popcorn/x86_64/lib/libstack-transform.a(regs.o)
                0x0000000000602408                regs_aarch64
 .rodata.src_arch_aarch64_regs__str__src_arch_
                0x00000000006024b0       0x4c 0x1 /usr/local/popcorn/x86_64/lib/libstack-transform.a(regs.o)
                0x00000000006024b0                src_arch_aarch64_regs__str__src_arch_
 .rodata.src_arch_aarch64_regs__str_1__src_arch_
                0x00000000006024fc       0x4c 0x1 /usr/local/popcorn/x86_64/lib/libstack-transform.a(regs.o)
                0x00000000006024fc                src_arch_aarch64_regs__str_1__src_arch_
 .rodata.is_callee_saved_powerpc64
                0x0000000000602548      0x208 0x8 /usr/local/popcorn/x86_64/lib/libstack-transform.a(properties.o)
 .rodata.callee_reg_size_powerpc64
                0x0000000000602750      0x210 0x8 /usr/local/popcorn/x86_64/lib/libstack-transform.a(properties.o)
 .rodata.src_arch_powerpc64_properties_c_callee_saved_powerpc64
                0x0000000000602960       0x4e 0x10 /usr/local/popcorn/x86_64/lib/libstack-transform.a(properties.o)
 ** zero fill   0x00000000006029ae        0x2
 .rodata.src_arch_powerpc64_properties_c_callee_saved_size_powerpc64
                0x00000000006029b0       0x4c 0x10 /usr/local/popcorn/x86_64/lib/libstack-transform.a(properties.o)
 ** zero fill   0x00000000006029fc        0x4
 .rodata.properties_powerpc64
                0x0000000000602a00       0x38 0x8 /usr/local/popcorn/x86_64/lib/libstack-transform.a(properties.o)
                0x0000000000602a00                properties_powerpc64
 .rodata.src_arch_powerpc64_properties__str__src_arch_
                0x0000000000602a38       0x56 0x1 /usr/local/popcorn/x86_64/lib/libstack-transform.a(properties.o)
                0x0000000000602a38                src_arch_powerpc64_properties__str__src_arch_
 ** zero fill   0x0000000000602a8e        0x2
 .rodata.reg_powerpc64
                0x0000000000602a90      0x218 0x8 /usr/local/popcorn/x86_64/lib/libstack-transform.a(regs.o)
 .rodata.regs_powerpc64
                0x0000000000602ca8       0xa8 0x8 /usr/local/popcorn/x86_64/lib/libstack-transform.a(regs.o)
                0x0000000000602ca8                regs_powerpc64
 .rodata.src_arch_powerpc64_regs__str__src_arch_
                0x0000000000602d50       0x50 0x1 /usr/local/popcorn/x86_64/lib/libstack-transform.a(regs.o)
                0x0000000000602d50                src_arch_powerpc64_regs__str__src_arch_
 .rodata.src_arch_powerpc64_regs__str_1__src_arch_
                0x0000000000602da0       0x50 0x1 /usr/local/popcorn/x86_64/lib/libstack-transform.a(regs.o)
                0x0000000000602da0                src_arch_powerpc64_regs__str_1__src_arch_
 .rodata.src_arch_x86_64_properties_c_callee_saved_x86_64
                0x0000000000602df0        0xe 0x2 /usr/local/popcorn/x86_64/lib/libstack-transform.a(properties.o)
 .rodata.src_arch_x86_64_properties_c_callee_saved_size_x86_64
                0x0000000000602dfe        0xe 0x2 /usr/local/popcorn/x86_64/lib/libstack-transform.a(properties.o)
 ** zero fill   0x0000000000602e0c        0x4
 .rodata.properties_x86_64
                0x0000000000602e10       0x38 0x8 /usr/local/popcorn/x86_64/lib/libstack-transform.a(properties.o)
                0x0000000000602e10                properties_x86_64
 .rodata.src_arch_x86_64_properties__str__src_arch_
                0x0000000000602e48       0x4f 0x1 /usr/local/popcorn/x86_64/lib/libstack-transform.a(properties.o)
                0x0000000000602e48                src_arch_x86_64_properties__str__src_arch_
 ** zero fill   0x0000000000602e97        0x1
 .rodata.reg_x86_64
                0x0000000000602e98      0x108 0x8 /usr/local/popcorn/x86_64/lib/libstack-transform.a(regs.o)
 .rodata.regs_x86_64
                0x0000000000602fa0       0xa8 0x8 /usr/local/popcorn/x86_64/lib/libstack-transform.a(regs.o)
                0x0000000000602fa0                regs_x86_64
 .rodata.src_arch_x86_64_regs__str__src_arch_
                0x0000000000603048       0x4b 0x1 /usr/local/popcorn/x86_64/lib/libstack-transform.a(regs.o)
                0x0000000000603048                src_arch_x86_64_regs__str__src_arch_
 .rodata.src_arch_x86_64_regs__str_1__src_arch_
                0x0000000000603093       0x4b 0x1 /usr/local/popcorn/x86_64/lib/libstack-transform.a(regs.o)
                0x0000000000603093                src_arch_x86_64_regs__str_1__src_arch_
 .rodata.src_arch_x86_64_regs__str_2__src_arch_
                0x00000000006030de       0x4a 0x1 /usr/local/popcorn/x86_64/lib/libstack-transform.a(regs.o)
                0x00000000006030de                src_arch_x86_64_regs__str_2__src_arch_
 .rodata.src_arch_x86_64_regs__str_3__src_arch_
                0x0000000000603128       0x4a 0x1 /usr/local/popcorn/x86_64/lib/libstack-transform.a(regs.o)
                0x0000000000603128                src_arch_x86_64_regs__str_3__src_arch_
 ** zero fill   0x0000000000603172        0x6
 .rodata.put_val_arch
                0x0000000000603178       0xb0 0x8 /usr/local/popcorn/x86_64/lib/libstack-transform.a(data.o)
 .rodata.points_to_stack
                0x0000000000603228       0x28 0x8 /usr/local/popcorn/x86_64/lib/libstack-transform.a(data.o)
 .rodata.src_data__str__src_data_
                0x0000000000603250       0x50 0x1 /usr/local/popcorn/x86_64/lib/libstack-transform.a(data.o)
                0x0000000000603250                src_data__str__src_data_
 .rodata.src_data__str_1__src_data_
                0x00000000006032a0       0x3d 0x1 /usr/local/popcorn/x86_64/lib/libstack-transform.a(data.o)
                0x00000000006032a0                src_data__str_1__src_data_
 .rodata.src_data__str_2__src_data_
                0x00000000006032dd       0x30 0x1 /usr/local/popcorn/x86_64/lib/libstack-transform.a(data.o)
                0x00000000006032dd                src_data__str_2__src_data_
 .rodata.src_data__str_3__src_data_
                0x000000000060330d       0x49 0x1 /usr/local/popcorn/x86_64/lib/libstack-transform.a(data.o)
                0x000000000060330d                src_data__str_3__src_data_
 .rodata.src_data__str_4__src_data_
                0x0000000000603356       0x3f 0x1 /usr/local/popcorn/x86_64/lib/libstack-transform.a(data.o)
                0x0000000000603356                src_data__str_4__src_data_
 .rodata.src_data__str_5__src_data_
                0x0000000000603395       0x3d 0x1 /usr/local/popcorn/x86_64/lib/libstack-transform.a(data.o)
                0x0000000000603395                src_data__str_5__src_data_
 .rodata.src_data__str_6__src_data_
                0x00000000006033d2       0x3f 0x1 /usr/local/popcorn/x86_64/lib/libstack-transform.a(data.o)
                0x00000000006033d2                src_data__str_6__src_data_
 .rodata.src_data__str_7__src_data_
                0x0000000000603411       0x37 0x1 /usr/local/popcorn/x86_64/lib/libstack-transform.a(data.o)
                0x0000000000603411                src_data__str_7__src_data_
 .rodata.src_data__str_8__src_data_
                0x0000000000603448       0x37 0x1 /usr/local/popcorn/x86_64/lib/libstack-transform.a(data.o)
                0x0000000000603448                src_data__str_8__src_data_
 .rodata.src_data__str_9__src_data_
                0x000000000060347f       0x3f 0x1 /usr/local/popcorn/x86_64/lib/libstack-transform.a(data.o)
                0x000000000060347f                src_data__str_9__src_data_
 .rodata.src_data__str_10__src_data_
                0x00000000006034be       0x3f 0x1 /usr/local/popcorn/x86_64/lib/libstack-transform.a(data.o)
                0x00000000006034be                src_data__str_10__src_data_
 ** zero fill   0x00000000006034fd        0x3
 .rodata.elf_begin
                0x0000000000603500       0x40 0x8 /usr/local/popcorn/x86_64/lib/libelf.a(begin.o)
 .rodata.begin_c__elf_init
                0x0000000000603540       0xe0 0x8 /usr/local/popcorn/x86_64/lib/libelf.a(begin.o)
 .rodata.begin_c_fmag
                0x0000000000603620        0x3 0x1 /usr/local/popcorn/x86_64/lib/libelf.a(begin.o)
 .rodata.begin__str__ELF_
                0x0000000000603623        0x5 0x1 /usr/local/popcorn/x86_64/lib/libelf.a(begin.o)
                0x0000000000603623                begin__str__ELF_
 .rodata.begin__str_1___arch___
                0x0000000000603628        0x9 0x1 /usr/local/popcorn/x86_64/lib/libelf.a(begin.o)
                0x0000000000603628                begin__str_1___arch___
 .rodata.version__str_LIBELF_SAN
                0x0000000000603631       0x15 0x1 /usr/local/popcorn/x86_64/lib/libelf.a(version.o)
                0x0000000000603631                version__str_LIBELF_SAN
 ** zero fill   0x0000000000603646        0xa
 .rodata.32_xlatetof_c_xlate32_11
                0x0000000000603650      0x220 0x10 /usr/local/popcorn/x86_64/lib/libelf.a(32.xlatetof.o)
 .rodata._elf_scn_type
                0x0000000000603870       0x88 0x8 /usr/local/popcorn/x86_64/lib/libelf.a(cook.o)
 .rodata._elf_cook
                0x00000000006038f8      0x110 0x8 /usr/local/popcorn/x86_64/lib/libelf.a(cook.o)
 .rodata._elf_scn_init
                0x0000000000603a08       0xa0 0x8 /usr/local/popcorn/x86_64/lib/libelf.a(cook.o)
                0x0000000000603a08                _elf_scn_init
 .rodata._elf_data_init
                0x0000000000603aa8       0x58 0x8 /usr/local/popcorn/x86_64/lib/libelf.a(cook.o)
                0x0000000000603aa8                _elf_data_init
 .rodata.64_xlatetof_c_xlate64_11
                0x0000000000603b00      0x220 0x10 /usr/local/popcorn/x86_64/lib/libelf.a(64.xlatetof.o)
 .rodata._elf_fmsize
                0x0000000000603d20      0x220 0x10 /usr/local/popcorn/x86_64/lib/libelf.a(32.fsize.o)
                0x0000000000603d20                _elf_fmsize
 .rodata.src_exit_assert__str_Assertion_
                0x0000000000603f40       0x23 0x1 /usr/local/popcorn/x86_64/lib/libc.a(assert.o)
                0x0000000000603f40                src_exit_assert__str_Assertion_
 ** zero fill   0x0000000000603f63        0xd
 .rodata.src_malloc_malloc_c_bin_tab
                0x0000000000603f70       0x3c 0x10 /usr/local/popcorn/x86_64/lib/libc.a(malloc.o)
 ** zero fill   0x0000000000603fac        0x4
 .rodata.src_malloc_popcorn_malloc_c_bin_tab
                0x0000000000603fb0       0x3c 0x10 /usr/local/popcorn/x86_64/lib/libc.a(popcorn_malloc.o)
 .rodata.src_stdio_fopen__str_rwa_
                0x0000000000603fec        0x4 0x1 /usr/local/popcorn/x86_64/lib/libc.a(fopen.o)
                0x0000000000603fec                src_stdio_fopen__str_rwa_
 .rodata.stderr
                0x0000000000603ff0        0x8 0x8 /usr/local/popcorn/x86_64/lib/libc.a(stderr.o)
                0x0000000000603ff0                stderr
 .rodata.vfscanf
                0x0000000000603ff8      0x338 0x8 /usr/local/popcorn/x86_64/lib/libc.a(vfscanf.o)
 .rodata.src_stdlib_qsort_qsort_p_
                0x0000000000604330       0x10 0x10 /usr/local/popcorn/x86_64/lib/libc.a(qsort.o)
                0x0000000000604330                src_stdlib_qsort_qsort_p_
 .rodata.src_internal_floatscan__str_infinity_
                0x0000000000604340        0x9 0x1 /usr/local/popcorn/x86_64/lib/libc.a(floatscan.o)
                0x0000000000604340                src_internal_floatscan__str_infinity_
 ** zero fill   0x0000000000604349        0x7
 .rodata.src_internal_floatscan_c_decfloat_p10s
                0x0000000000604350       0x20 0x10 /usr/local/popcorn/x86_64/lib/libc.a(floatscan.o)
 .rodata.src_internal_floatscan_switch_table_
                0x0000000000604370        0xc 0x4 /usr/local/popcorn/x86_64/lib/libc.a(floatscan.o)
                0x0000000000604370                src_internal_floatscan_switch_table_
 .rodata.src_internal_floatscan_switch_table_2_
                0x000000000060437c        0xc 0x4 /usr/local/popcorn/x86_64/lib/libc.a(floatscan.o)
                0x000000000060437c                src_internal_floatscan_switch_table_2_
 ** zero fill   0x0000000000604388        0x8
 .rodata.src_internal_intscan_c_table
                0x0000000000604390      0x101 0x10 /usr/local/popcorn/x86_64/lib/libc.a(intscan.o)
 .rodata.src_internal_intscan__str__________
                0x0000000000604491        0x9 0x1 /usr/local/popcorn/x86_64/lib/libc.a(intscan.o)
                0x0000000000604491                src_internal_intscan__str__________
 ** zero fill   0x000000000060449a        0x6
 .rodata.src_signal_block_c_all_mask
                0x00000000006044a0        0x8 0x8 /usr/local/popcorn/x86_64/lib/libc.a(block.o)
 .rodata.src_signal_block_c_app_mask
                0x00000000006044a8        0x8 0x8 /usr/local/popcorn/x86_64/lib/libc.a(block.o)
 .rodata.src_stdio___fdopen__str_rwa_
                0x00000000006044b0        0x4 0x1 /usr/local/popcorn/x86_64/lib/libc.a(__fdopen.o)
                0x00000000006044b0                src_stdio___fdopen__str_rwa_
 ** zero fill   0x00000000006044b4        0xc
 .rodata.__fsmu8
                0x00000000006044c0       0xcc 0x10 /usr/local/popcorn/x86_64/lib/libc.a(internal.o)
                0x00000000006044c0                __fsmu8
 ** zero fill   0x000000000060458c        0x4
 .rodata.src_arch_x86_64_regs_switch_table_
                0x0000000000604590       0x42 0x10 /usr/local/popcorn/x86_64/lib/libstack-transform.a(regs.o)
                0x0000000000604590                src_arch_x86_64_regs_switch_table_

.rodata.cst4    0x00000000006045d4       0x2c
 ** merge constants
                0x00000000006045d4       0x2c

.rodata.cst16   0x0000000000604600       0xb0
 ** merge constants
                0x0000000000604600       0xb0

.rodata.cst8    0x00000000006046b0       0x38
 ** merge constants
                0x00000000006046b0       0x38

.data           0x0000000000700000     0x1228
 ** zero fill   0x0000000000700000        0x1
 ** zero fill   0x0000000000700001      0xfff
 .data.src_stdio_stdout_c_f
                0x0000000000701000       0xe8 0x8 /usr/local/popcorn/x86_64/lib/libc.a(stdout.o)
 .data.__stdout_used
                0x00000000007010e8        0x8 0x8 /usr/local/popcorn/x86_64/lib/libc.a(stdout.o)
                0x00000000007010e8                __stdout_used
 .data.src_migrate_c_origin_nid
                0x00000000007010f0        0x4 0x4 /usr/local/popcorn/x86_64/lib/libmigrate.a(migrate.o)
 .data.__migrate_flag
                0x00000000007010f4        0x4 0x4 /usr/local/popcorn/x86_64/lib/libmigrate.a(trigger.o)
                0x00000000007010f4                __migrate_flag
 .data._elf_sanity_checks
                0x00000000007010f8        0x4 0x4 /usr/local/popcorn/x86_64/lib/libelf.a(data.o)
                0x00000000007010f8                _elf_sanity_checks
 ** zero fill   0x00000000007010fc        0x4
 .data.src_stdio_stderr_c_f
                0x0000000000701100       0xe8 0x8 /usr/local/popcorn/x86_64/lib/libc.a(stderr.o)
 .data.__stderr_used
                0x00000000007011e8        0x8 0x8 /usr/local/popcorn/x86_64/lib/libc.a(stderr.o)
                0x00000000007011e8                __stderr_used
 ** zero fill   0x00000000007011f0       0x10
 ** zero fill   0x0000000000701200       0x10
 ** zero fill   0x0000000000701210        0x8
 ** zero fill   0x0000000000701218       0x10
 .data          0x0000000000701228        0x0 0x4 popcorn-hello_x86_64.o
 .data          0x0000000000701228        0x0 0x4 /usr/local/popcorn/x86_64/lib/crt1.o
 .data          0x0000000000701228        0x0 0x4 /usr/local/popcorn/x86_64/lib/libc.a(__libc_start_main.o)
 .data          0x0000000000701228        0x0 0x4 /usr/local/popcorn/x86_64/lib/libc.a(exit.o)
 .data          0x0000000000701228        0x0 0x4 /usr/local/popcorn/x86_64/lib/libc.a(libc.o)
 .data          0x0000000000701228        0x0 0x4 /usr/local/popcorn/x86_64/lib/libc.a(printf.o)
 .data          0x0000000000701228        0x0 0x4 /usr/local/popcorn/x86_64/lib/libc.a(stdout.o)
 .data          0x0000000000701228        0x0 0x4 /usr/local/popcorn/x86_64/lib/libc.a(vfprintf.o)
 .data          0x0000000000701228        0x0 0x4 /usr/local/popcorn/x86_64/lib/libc.a(strnlen.o)
 .data          0x0000000000701228        0x0 0x4 /usr/local/popcorn/x86_64/lib/libc.a(memset.o)
 .data          0x0000000000701228        0x0 0x4 /usr/local/popcorn/x86_64/lib/libc.a(__environ.o)
 .data          0x0000000000701228        0x0 0x4 /usr/local/popcorn/x86_64/lib/libc.a(__init_tls.o)
 .data          0x0000000000701228        0x0 0x4 /usr/local/popcorn/x86_64/lib/libc.a(__errno_location.o)
 .data          0x0000000000701228        0x0 0x4 /usr/local/popcorn/x86_64/lib/libc.a(strerror.o)
 .data          0x0000000000701228        0x0 0x4 /usr/local/popcorn/x86_64/lib/libc.a(_Exit.o)
 .data          0x0000000000701228        0x0 0x4 /usr/local/popcorn/x86_64/lib/libc.a(__lctrans.o)
 .data          0x0000000000701228        0x0 0x4 /usr/local/popcorn/x86_64/lib/libc.a(__fpclassifyl.o)
 .data          0x0000000000701228        0x0 0x4 /usr/local/popcorn/x86_64/lib/libc.a(__signbitl.o)
 .data          0x0000000000701228        0x0 0x4 /usr/local/popcorn/x86_64/lib/libc.a(frexpl.o)
 .data          0x0000000000701228        0x0 0x4 /usr/local/popcorn/x86_64/lib/libc.a(wctomb.o)
 .data          0x0000000000701228        0x0 0x4 /usr/local/popcorn/x86_64/lib/libc.a(__lockfile.o)
 .data          0x0000000000701228        0x0 0x4 /usr/local/popcorn/x86_64/lib/libc.a(__stdio_close.o)
 .data          0x0000000000701228        0x0 0x4 /usr/local/popcorn/x86_64/lib/libc.a(__stdio_seek.o)
 .data          0x0000000000701228        0x0 0x4 /usr/local/popcorn/x86_64/lib/libc.a(__stdout_write.o)
 .data          0x0000000000701228        0x0 0x4 /usr/local/popcorn/x86_64/lib/libc.a(fwrite.o)
 .data          0x0000000000701228        0x0 0x4 /usr/local/popcorn/x86_64/lib/libc.a(memchr.o)
 .data          0x0000000000701228        0x0 0x4 /usr/local/popcorn/x86_64/lib/libc.a(memcpy.o)
 .data          0x0000000000701228        0x0 0x4 /usr/local/popcorn/x86_64/lib/libc.a(__wait.o)
 .data          0x0000000000701228        0x0 0x4 /usr/local/popcorn/x86_64/lib/libc.a(__set_thread_area.o)
 .data          0x0000000000701228        0x0 0x4 /usr/local/popcorn/x86_64/lib/libc.a(syscall_ret.o)
 .data          0x0000000000701228        0x0 0x4 /usr/local/popcorn/x86_64/lib/libc.a(wcrtomb.o)
 .data          0x0000000000701228        0x0 0x4 /usr/local/popcorn/x86_64/lib/libc.a(__stdio_write.o)
 .data          0x0000000000701228        0x0 0x4 /usr/local/popcorn/x86_64/lib/libc.a(__towrite.o)
 .data          0x0000000000701228        0x0 0x4 /usr/local/popcorn/x86_64/lib/libc.a(__stdio_exit.o)
 .data          0x0000000000701228        0x0 0x4 /usr/local/popcorn/x86_64/lib/libc.a(ofl.o)
 .data          0x0000000000701228        0x0 0x4 /usr/local/popcorn/x86_64/lib/libc.a(__lock.o)
 .data          0x0000000000701228        0x0 0x4 /usr/local/popcorn/x86_64/lib/libmigrate.a(migrate.o)
 .data          0x0000000000701228        0x0 0x4 /usr/local/popcorn/x86_64/lib/libmigrate.a(trigger.o)
 .data          0x0000000000701228        0x0 0x1 /usr/local/popcorn/x86_64/lib/libmigrate.a(migrate_x86_64.o)
 .data          0x0000000000701228        0x0 0x1 /usr/local/popcorn/x86_64/lib/libmigrate.a(migrate_aarch64.o)
 .data          0x0000000000701228        0x0 0x1 /usr/local/popcorn/x86_64/lib/libmigrate.a(migrate_powerpc64.o)
 .data          0x0000000000701228        0x0 0x4 /usr/local/popcorn/x86_64/lib/libmigrate.a(mapping.o)
 .data          0x0000000000701228        0x0 0x4 /usr/local/popcorn/x86_64/lib/libstack-transform.a(userspace.o)
 .data          0x0000000000701228        0x0 0x4 /usr/local/popcorn/x86_64/lib/libstack-transform.a(init.o)
 .data          0x0000000000701228        0x0 0x4 /usr/local/popcorn/x86_64/lib/libstack-transform.a(rewrite.o)
 .data          0x0000000000701228        0x0 0x4 /usr/local/popcorn/x86_64/lib/libstack-transform.a(unwind.o)
 .data          0x0000000000701228        0x0 0x4 /usr/local/popcorn/x86_64/lib/libstack-transform.a(util.o)
 .data          0x0000000000701228        0x0 0x4 /usr/local/popcorn/x86_64/lib/libstack-transform.a(properties.o)
 .data          0x0000000000701228        0x0 0x4 /usr/local/popcorn/x86_64/lib/libstack-transform.a(regs.o)
 .data          0x0000000000701228        0x0 0x4 /usr/local/popcorn/x86_64/lib/libstack-transform.a(properties.o)
 .data          0x0000000000701228        0x0 0x4 /usr/local/popcorn/x86_64/lib/libstack-transform.a(regs.o)
 .data          0x0000000000701228        0x0 0x4 /usr/local/popcorn/x86_64/lib/libstack-transform.a(properties.o)
 .data          0x0000000000701228        0x0 0x4 /usr/local/popcorn/x86_64/lib/libstack-transform.a(regs.o)
 .data          0x0000000000701228        0x0 0x4 /usr/local/popcorn/x86_64/lib/libstack-transform.a(data.o)
 .data          0x0000000000701228        0x0 0x4 /usr/local/popcorn/x86_64/lib/libelf.a(begin.o)
 .data          0x0000000000701228        0x0 0x4 /usr/local/popcorn/x86_64/lib/libelf.a(end.o)
 .data          0x0000000000701228        0x0 0x4 /usr/local/popcorn/x86_64/lib/libelf.a(getdata.o)
 .data          0x0000000000701228        0x0 0x4 /usr/local/popcorn/x86_64/lib/libelf.a(getident.o)
 .data          0x0000000000701228        0x0 0x4 /usr/local/popcorn/x86_64/lib/libelf.a(nextscn.o)
 .data          0x0000000000701228        0x0 0x4 /usr/local/popcorn/x86_64/lib/libelf.a(strptr.o)
 .data          0x0000000000701228        0x0 0x4 /usr/local/popcorn/x86_64/lib/libelf.a(version.o)
 .data          0x0000000000701228        0x0 0x4 /usr/local/popcorn/x86_64/lib/libelf.a(32.getehdr.o)
 .data          0x0000000000701228        0x0 0x4 /usr/local/popcorn/x86_64/lib/libelf.a(32.xlatetof.o)
 .data          0x0000000000701228        0x0 0x4 /usr/local/popcorn/x86_64/lib/libelf.a(cook.o)
 .data          0x0000000000701228        0x0 0x4 /usr/local/popcorn/x86_64/lib/libelf.a(data.o)
 .data          0x0000000000701228        0x0 0x4 /usr/local/popcorn/x86_64/lib/libelf.a(input.o)
 .data          0x0000000000701228        0x0 0x4 /usr/local/popcorn/x86_64/lib/libelf.a(x.elfext.o)
 .data          0x0000000000701228        0x0 0x4 /usr/local/popcorn/x86_64/lib/libelf.a(64.xlatetof.o)
 .data          0x0000000000701228        0x0 0x4 /usr/local/popcorn/x86_64/lib/libelf.a(gelfshdr.o)
 .data          0x0000000000701228        0x0 0x4 /usr/local/popcorn/x86_64/lib/libelf.a(swap64.o)
 .data          0x0000000000701228        0x0 0x4 /usr/local/popcorn/x86_64/lib/libelf.a(verdef_32_tof.o)
 .data          0x0000000000701228        0x0 0x4 /usr/local/popcorn/x86_64/lib/libelf.a(verdef_32_tom.o)
 .data          0x0000000000701228        0x0 0x4 /usr/local/popcorn/x86_64/lib/libelf.a(verdef_64_tof.o)
 .data          0x0000000000701228        0x0 0x4 /usr/local/popcorn/x86_64/lib/libelf.a(verdef_64_tom.o)
 .data          0x0000000000701228        0x0 0x4 /usr/local/popcorn/x86_64/lib/libelf.a(getscn.o)
 .data          0x0000000000701228        0x0 0x4 /usr/local/popcorn/x86_64/lib/libelf.a(newscn.o)
 .data          0x0000000000701228        0x0 0x4 /usr/local/popcorn/x86_64/lib/libelf.a(32.fsize.o)
 .data          0x0000000000701228        0x0 0x4 /usr/local/popcorn/x86_64/lib/libc.a(arch_crash.o)
 .data          0x0000000000701228        0x0 0x4 /usr/local/popcorn/x86_64/lib/libc.a(getenv.o)
 .data          0x0000000000701228        0x0 0x4 /usr/local/popcorn/x86_64/lib/libc.a(platform.o)
 .data          0x0000000000701228        0x0 0x4 /usr/local/popcorn/x86_64/lib/libc.a(assert.o)
 .data          0x0000000000701228        0x0 0x4 /usr/local/popcorn/x86_64/lib/libc.a(open.o)
 .data          0x0000000000701228        0x0 0x4 /usr/local/popcorn/x86_64/lib/libc.a(calloc.o)
 .data          0x0000000000701228        0x0 0x4 /usr/local/popcorn/x86_64/lib/libc.a(lite_malloc.o)
 .data          0x0000000000701228        0x0 0x4 /usr/local/popcorn/x86_64/lib/libc.a(malloc.o)
 .data          0x0000000000701228        0x0 0x4 /usr/local/popcorn/x86_64/lib/libc.a(popcorn_malloc.o)
 .data          0x0000000000701228        0x0 0x4 /usr/local/popcorn/x86_64/lib/libc.a(getrlimit.o)
 .data          0x0000000000701228        0x0 0x4 /usr/local/popcorn/x86_64/lib/libc.a(syscall.o)
 .data          0x0000000000701228        0x0 0x4 /usr/local/popcorn/x86_64/lib/libc.a(madvise.o)
 .data          0x0000000000701228        0x0 0x4 /usr/local/popcorn/x86_64/lib/libc.a(mmap.o)
 .data          0x0000000000701228        0x0 0x4 /usr/local/popcorn/x86_64/lib/libc.a(mremap.o)
 .data          0x0000000000701228        0x0 0x4 /usr/local/popcorn/x86_64/lib/libc.a(munmap.o)
 .data          0x0000000000701228        0x0 0x4 /usr/local/popcorn/x86_64/lib/libc.a(sigaction.o)
 .data          0x0000000000701228        0x0 0x4 /usr/local/popcorn/x86_64/lib/libc.a(sigemptyset.o)
 .data          0x0000000000701228        0x0 0x4 /usr/local/popcorn/x86_64/lib/libc.a(sigrtmin.o)
 .data          0x0000000000701228        0x0 0x4 /usr/local/popcorn/x86_64/lib/libc.a(restore.o)
 .data          0x0000000000701228        0x0 0x4 /usr/local/popcorn/x86_64/lib/libc.a(fclose.o)
 .data          0x0000000000701228        0x0 0x4 /usr/local/popcorn/x86_64/lib/libc.a(fflush.o)
 .data          0x0000000000701228        0x0 0x4 /usr/local/popcorn/x86_64/lib/libc.a(fopen.o)
 .data          0x0000000000701228        0x0 0x4 /usr/local/popcorn/x86_64/lib/libc.a(fprintf.o)
 .data          0x0000000000701228        0x0 0x4 /usr/local/popcorn/x86_64/lib/libc.a(fscanf.o)
 .data          0x0000000000701228        0x0 0x4 /usr/local/popcorn/x86_64/lib/libc.a(fseek.o)
 .data          0x0000000000701228        0x0 0x4 /usr/local/popcorn/x86_64/lib/libc.a(getc.o)
 .data          0x0000000000701228        0x0 0x4 /usr/local/popcorn/x86_64/lib/libc.a(getline.o)
 .data          0x0000000000701228        0x0 0x4 /usr/local/popcorn/x86_64/lib/libc.a(perror.o)
 .data          0x0000000000701228        0x0 0x4 /usr/local/popcorn/x86_64/lib/libc.a(snprintf.o)
 .data          0x0000000000701228        0x0 0x4 /usr/local/popcorn/x86_64/lib/libc.a(sscanf.o)
 .data          0x0000000000701228        0x0 0x4 /usr/local/popcorn/x86_64/lib/libc.a(stderr.o)
 .data          0x0000000000701228        0x0 0x4 /usr/local/popcorn/x86_64/lib/libc.a(vfscanf.o)
 .data          0x0000000000701228        0x0 0x4 /usr/local/popcorn/x86_64/lib/libc.a(vsnprintf.o)
 .data          0x0000000000701228        0x0 0x4 /usr/local/popcorn/x86_64/lib/libc.a(vsscanf.o)
 .data          0x0000000000701228        0x0 0x4 /usr/local/popcorn/x86_64/lib/libc.a(bsearch.o)
 .data          0x0000000000701228        0x0 0x4 /usr/local/popcorn/x86_64/lib/libc.a(qsort.o)
 .data          0x0000000000701228        0x0 0x4 /usr/local/popcorn/x86_64/lib/libc.a(strtol.o)
 .data          0x0000000000701228        0x0 0x4 /usr/local/popcorn/x86_64/lib/libc.a(strchr.o)
 .data          0x0000000000701228        0x0 0x4 /usr/local/popcorn/x86_64/lib/libc.a(strchrnul.o)
 .data          0x0000000000701228        0x0 0x4 /usr/local/popcorn/x86_64/lib/libc.a(strcmp.o)
 .data          0x0000000000701228        0x0 0x4 /usr/local/popcorn/x86_64/lib/libc.a(strlen.o)
 .data          0x0000000000701228        0x0 0x4 /usr/local/popcorn/x86_64/lib/libc.a(strncmp.o)
 .data          0x0000000000701228        0x0 0x4 /usr/local/popcorn/x86_64/lib/libc.a(memmove.o)
 .data          0x0000000000701228        0x0 0x4 /usr/local/popcorn/x86_64/lib/libc.a(__syscall_cp.o)
 .data          0x0000000000701228        0x0 0x4 /usr/local/popcorn/x86_64/lib/libc.a(pthread_attr_get.o)
 .data          0x0000000000701228        0x0 0x4 /usr/local/popcorn/x86_64/lib/libc.a(pthread_getattr_np.o)
 .data          0x0000000000701228        0x0 0x4 /usr/local/popcorn/x86_64/lib/libc.a(pthread_migrate.o)
 .data          0x0000000000701228        0x0 0x4 /usr/local/popcorn/x86_64/lib/libc.a(pthread_self.o)
 .data          0x0000000000701228        0x0 0x4 /usr/local/popcorn/x86_64/lib/libc.a(close.o)
 .data          0x0000000000701228        0x0 0x4 /usr/local/popcorn/x86_64/lib/libc.a(getpid.o)
 .data          0x0000000000701228        0x0 0x4 /usr/local/popcorn/x86_64/lib/libc.a(lseek.o)
 .data          0x0000000000701228        0x0 0x4 /usr/local/popcorn/x86_64/lib/libc.a(read.o)
 .data          0x0000000000701228        0x0 0x4 /usr/local/popcorn/x86_64/lib/libc.a(abort.o)
 .data          0x0000000000701228        0x0 0x4 /usr/local/popcorn/x86_64/lib/libc.a(floatscan.o)
 .data          0x0000000000701228        0x0 0x4 /usr/local/popcorn/x86_64/lib/libc.a(intscan.o)
 .data          0x0000000000701228        0x0 0x4 /usr/local/popcorn/x86_64/lib/libc.a(shgetc.o)
 .data          0x0000000000701228        0x0 0x4 /usr/local/popcorn/x86_64/lib/libc.a(syscall.o)
 .data          0x0000000000701228        0x0 0x4 /usr/local/popcorn/x86_64/lib/libc.a(expand_heap.o)
 .data          0x0000000000701228        0x0 0x4 /usr/local/popcorn/x86_64/lib/libc.a(copysignl.o)
 .data          0x0000000000701228        0x0 0x4 /usr/local/popcorn/x86_64/lib/libc.a(scalbn.o)
 .data          0x0000000000701228        0x0 0x4 /usr/local/popcorn/x86_64/lib/libc.a(scalbnl.o)
 .data          0x0000000000701228        0x0 0x4 /usr/local/popcorn/x86_64/lib/libc.a(fabs.o)
 .data          0x0000000000701228        0x0 0x4 /usr/local/popcorn/x86_64/lib/libc.a(fmodl.o)
 .data          0x0000000000701228        0x0 0x4 /usr/local/popcorn/x86_64/lib/libc.a(mbrtowc.o)
 .data          0x0000000000701228        0x0 0x4 /usr/local/popcorn/x86_64/lib/libc.a(mbsinit.o)
 .data          0x0000000000701228        0x0 0x4 /usr/local/popcorn/x86_64/lib/libc.a(block.o)
 .data          0x0000000000701228        0x0 0x4 /usr/local/popcorn/x86_64/lib/libc.a(raise.o)
 .data          0x0000000000701228        0x0 0x4 /usr/local/popcorn/x86_64/lib/libc.a(__fdopen.o)
 .data          0x0000000000701228        0x0 0x4 /usr/local/popcorn/x86_64/lib/libc.a(__fmodeflags.o)
 .data          0x0000000000701228        0x0 0x4 /usr/local/popcorn/x86_64/lib/libc.a(__stdio_read.o)
 .data          0x0000000000701228        0x0 0x4 /usr/local/popcorn/x86_64/lib/libc.a(__string_read.o)
 .data          0x0000000000701228        0x0 0x4 /usr/local/popcorn/x86_64/lib/libc.a(__uflow.o)
 .data          0x0000000000701228        0x0 0x4 /usr/local/popcorn/x86_64/lib/libc.a(fputc.o)
 .data          0x0000000000701228        0x0 0x4 /usr/local/popcorn/x86_64/lib/libc.a(getdelim.o)
 .data          0x0000000000701228        0x0 0x4 /usr/local/popcorn/x86_64/lib/libc.a(ofl_add.o)
 .data          0x0000000000701228        0x0 0x4 /usr/local/popcorn/x86_64/lib/libc.a(internal.o)
 .data          0x0000000000701228        0x0 0x4 /usr/local/popcorn/x86_64/lib/libc.a(__overflow.o)
 .data          0x0000000000701228        0x0 0x4 /usr/local/popcorn/x86_64/lib/libc.a(__toread.o)

.bss            0x0000000000800000    0x23454
 ** common      0x0000000000800000    0x20080
 ** zero fill   0x0000000000820080        0x1
 ** zero fill   0x0000000000820081      0xf7f
 .bss.__popcorn_stack_base
                0x0000000000821000        0x8 0x8 /usr/local/popcorn/x86_64/lib/libc.a(__libc_start_main.o)
                0x0000000000821000                __popcorn_stack_base
 .bss.__progname
                0x0000000000821008        0x8 0x8 /usr/local/popcorn/x86_64/lib/libc.a(libc.o)
                0x0000000000821008                __progname
                0x0000000000821008                program_invocation_short_name
 .bss.__progname_full
                0x0000000000821010        0x8 0x8 /usr/local/popcorn/x86_64/lib/libc.a(libc.o)
                0x0000000000821010                __progname_full
                0x0000000000821010                program_invocation_name
 ** zero fill   0x0000000000821018        0x8
 .bss.src_stdio_stdout_c_buf
                0x0000000000821020      0x408 0x10 /usr/local/popcorn/x86_64/lib/libc.a(stdout.o)
 .bss.__environ
                0x0000000000821428        0x8 0x8 /usr/local/popcorn/x86_64/lib/libc.a(__environ.o)
                0x0000000000821428                ___environ
                0x0000000000821428                __environ
                0x0000000000821428                _environ
                0x0000000000821428                environ
 .bss.src_env___init_tls_c_main_tls
                0x0000000000821430       0x30 0x8 /usr/local/popcorn/x86_64/lib/libc.a(__init_tls.o)
 .bss.src_env___init_tls_c_builtin_tls
                0x0000000000821460      0x1a8 0x10 /usr/local/popcorn/x86_64/lib/libc.a(__init_tls.o)
 .bss.src_stdio___stdio_exit_c_dummy_file
                0x0000000000821608        0x8 0x8 /usr/local/popcorn/x86_64/lib/libc.a(__stdio_exit.o)
                0x0000000000821608                __stdin_used
 .bss.src_stdio_ofl_c_ofl_lock
                0x0000000000821610        0x8 0x4 /usr/local/popcorn/x86_64/lib/libc.a(ofl.o)
 .bss.src_stdio_ofl_c_ofl_head
                0x0000000000821618        0x8 0x8 /usr/local/popcorn/x86_64/lib/libc.a(ofl.o)
 .bss.src_migrate_c_ni
                0x0000000000821620      0x180 0x10 /usr/local/popcorn/x86_64/lib/libmigrate.a(migrate.o)
 .bss.src_mapping_c_default_node
                0x00000000008217a0        0x4 0x4 /usr/local/popcorn/x86_64/lib/libmigrate.a(mapping.o)
 ** zero fill   0x00000000008217a4        0x4
 .bss.src_mapping_c_mappings
                0x00000000008217a8        0x8 0x8 /usr/local/popcorn/x86_64/lib/libmigrate.a(mapping.o)
 .bss.src_mapping_c_num_mappings
                0x00000000008217b0        0x8 0x8 /usr/local/popcorn/x86_64/lib/libmigrate.a(mapping.o)
 .bss.aarch64_fn
                0x00000000008217b8        0x8 0x8 /usr/local/popcorn/x86_64/lib/libstack-transform.a(userspace.o)
                0x00000000008217b8                aarch64_fn
 .bss.powerpc64_fn
                0x00000000008217c0        0x8 0x8 /usr/local/popcorn/x86_64/lib/libstack-transform.a(userspace.o)
                0x00000000008217c0                powerpc64_fn
 .bss.x86_64_fn
                0x00000000008217c8        0x8 0x8 /usr/local/popcorn/x86_64/lib/libstack-transform.a(userspace.o)
                0x00000000008217c8                x86_64_fn
 .bss.src_userspace_c_aarch64_handle
                0x00000000008217d0        0x8 0x8 /usr/local/popcorn/x86_64/lib/libstack-transform.a(userspace.o)
 .bss.src_userspace_c_alloc_aarch64_fn
                0x00000000008217d8        0x1 0x1 /usr/local/popcorn/x86_64/lib/libstack-transform.a(userspace.o)
 ** zero fill   0x00000000008217d9        0x7
 .bss.src_userspace_c_powerpc64_handle
                0x00000000008217e0        0x8 0x8 /usr/local/popcorn/x86_64/lib/libstack-transform.a(userspace.o)
 .bss.src_userspace_c_alloc_powerpc64_fn
                0x00000000008217e8        0x1 0x1 /usr/local/popcorn/x86_64/lib/libstack-transform.a(userspace.o)
 ** zero fill   0x00000000008217e9        0x7
 .bss.src_userspace_c_x86_64_handle
                0x00000000008217f0        0x8 0x8 /usr/local/popcorn/x86_64/lib/libstack-transform.a(userspace.o)
 .bss.src_userspace_c_alloc_x86_64_fn
                0x00000000008217f8        0x1 0x1 /usr/local/popcorn/x86_64/lib/libstack-transform.a(userspace.o)
 ** zero fill   0x00000000008217f9        0x3
 .bss._elf_version
                0x00000000008217fc        0x4 0x4 /usr/local/popcorn/x86_64/lib/libelf.a(data.o)
                0x00000000008217fc                _elf_version
 .bss._elf_errno
                0x0000000000821800        0x4 0x4 /usr/local/popcorn/x86_64/lib/libelf.a(data.o)
                0x0000000000821800                _elf_errno
 .bss._elf_fill
                0x0000000000821804        0x4 0x4 /usr/local/popcorn/x86_64/lib/libelf.a(data.o)
                0x0000000000821804                _elf_fill
 .bss.src_malloc_lite_malloc_c___simple_malloc_cur
                0x0000000000821808        0x8 0x8 /usr/local/popcorn/x86_64/lib/libc.a(lite_malloc.o)
 .bss.src_malloc_lite_malloc_c___simple_malloc_end
                0x0000000000821810        0x8 0x8 /usr/local/popcorn/x86_64/lib/libc.a(lite_malloc.o)
 .bss.src_malloc_lite_malloc_c___simple_malloc_lock
                0x0000000000821818        0x8 0x4 /usr/local/popcorn/x86_64/lib/libc.a(lite_malloc.o)
 ** zero fill   0x0000000000821820      0x7e0
 .bss.src_malloc_malloc_c_mal
                0x0000000000822000     0x1000 0x1000 /usr/local/popcorn/x86_64/lib/libc.a(malloc.o)
 .bss.src_malloc_malloc_c_expand_heap_heap_lock
                0x0000000000823000        0x8 0x4 /usr/local/popcorn/x86_64/lib/libc.a(malloc.o)
 .bss.src_malloc_malloc_c_expand_heap_end
                0x0000000000823008        0x8 0x8 /usr/local/popcorn/x86_64/lib/libc.a(malloc.o)
 .bss.src_malloc_popcorn_malloc_c_expand_heap_heap_lock
                0x0000000000823010      0x100 0x10 /usr/local/popcorn/x86_64/lib/libc.a(popcorn_malloc.o)
 .bss.src_malloc_popcorn_malloc_c_expand_heap_end
                0x0000000000823110      0x100 0x10 /usr/local/popcorn/x86_64/lib/libc.a(popcorn_malloc.o)
 .bss.src_signal_sigaction_c_handler_set
                0x0000000000823210        0x8 0x8 /usr/local/popcorn/x86_64/lib/libc.a(sigaction.o)
 .bss.src_signal_sigaction_c_unmask_done
                0x0000000000823218        0x1 0x1 /usr/local/popcorn/x86_64/lib/libc.a(sigaction.o)
 ** zero fill   0x0000000000823219        0x7
 .bss.src_stdio_fflush_c_dummy
                0x0000000000823220        0x8 0x8 /usr/local/popcorn/x86_64/lib/libc.a(fflush.o)
 .bss.src_stdio_stderr_c_buf
                0x0000000000823228        0x8 0x1 /usr/local/popcorn/x86_64/lib/libc.a(stderr.o)
 .bss.src_malloc_expand_heap_c___expand_heap_brk
                0x0000000000823230        0x8 0x8 /usr/local/popcorn/x86_64/lib/libc.a(expand_heap.o)
 .bss.src_malloc_expand_heap_c___expand_heap_mmap_step
                0x0000000000823238        0x4 0x4 /usr/local/popcorn/x86_64/lib/libc.a(expand_heap.o)
 ** zero fill   0x000000000082323c        0x4
 .bss.src_malloc_expand_heap_c___expand_heap_node_node_arenas
                0x0000000000823240      0x100 0x10 /usr/local/popcorn/x86_64/lib/libc.a(expand_heap.o)
 .bss.src_malloc_expand_heap_c___expand_heap_node_node_sizes
                0x0000000000823340      0x100 0x10 /usr/local/popcorn/x86_64/lib/libc.a(expand_heap.o)
 .bss.src_malloc_expand_heap_c_arena_start
                0x0000000000823440        0x8 0x8 /usr/local/popcorn/x86_64/lib/libc.a(expand_heap.o)
 .bss.src_malloc_expand_heap_c_set_arena_start_lock
                0x0000000000823448        0x8 0x4 /usr/local/popcorn/x86_64/lib/libc.a(expand_heap.o)
 .bss.src_multibyte_mbrtowc_c_mbrtowc_internal_state
                0x0000000000823450        0x4 0x4 /usr/local/popcorn/x86_64/lib/libc.a(mbrtowc.o)
 .bss           0x0000000000823454        0x0 0x4 popcorn-hello_x86_64.o
 .bss           0x0000000000823454        0x0 0x4 /usr/local/popcorn/x86_64/lib/crt1.o
 .bss           0x0000000000823454        0x0 0x4 /usr/local/popcorn/x86_64/lib/libc.a(__libc_start_main.o)
 .bss           0x0000000000823454        0x0 0x4 /usr/local/popcorn/x86_64/lib/libc.a(exit.o)
 .bss           0x0000000000823454        0x0 0x4 /usr/local/popcorn/x86_64/lib/libc.a(libc.o)
 .bss           0x0000000000823454        0x0 0x4 /usr/local/popcorn/x86_64/lib/libc.a(printf.o)
 .bss           0x0000000000823454        0x0 0x4 /usr/local/popcorn/x86_64/lib/libc.a(stdout.o)
 .bss           0x0000000000823454        0x0 0x4 /usr/local/popcorn/x86_64/lib/libc.a(vfprintf.o)
 .bss           0x0000000000823454        0x0 0x4 /usr/local/popcorn/x86_64/lib/libc.a(strnlen.o)
 .bss           0x0000000000823454        0x0 0x4 /usr/local/popcorn/x86_64/lib/libc.a(memset.o)
 .bss           0x0000000000823454        0x0 0x4 /usr/local/popcorn/x86_64/lib/libc.a(__environ.o)
 .bss           0x0000000000823454        0x0 0x4 /usr/local/popcorn/x86_64/lib/libc.a(__init_tls.o)
 .bss           0x0000000000823454        0x0 0x4 /usr/local/popcorn/x86_64/lib/libc.a(__errno_location.o)
 .bss           0x0000000000823454        0x0 0x4 /usr/local/popcorn/x86_64/lib/libc.a(strerror.o)
 .bss           0x0000000000823454        0x0 0x4 /usr/local/popcorn/x86_64/lib/libc.a(_Exit.o)
 .bss           0x0000000000823454        0x0 0x4 /usr/local/popcorn/x86_64/lib/libc.a(__lctrans.o)
 .bss           0x0000000000823454        0x0 0x4 /usr/local/popcorn/x86_64/lib/libc.a(__fpclassifyl.o)
 .bss           0x0000000000823454        0x0 0x4 /usr/local/popcorn/x86_64/lib/libc.a(__signbitl.o)
 .bss           0x0000000000823454        0x0 0x4 /usr/local/popcorn/x86_64/lib/libc.a(frexpl.o)
 .bss           0x0000000000823454        0x0 0x4 /usr/local/popcorn/x86_64/lib/libc.a(wctomb.o)
 .bss           0x0000000000823454        0x0 0x4 /usr/local/popcorn/x86_64/lib/libc.a(__lockfile.o)
 .bss           0x0000000000823454        0x0 0x4 /usr/local/popcorn/x86_64/lib/libc.a(__stdio_close.o)
 .bss           0x0000000000823454        0x0 0x4 /usr/local/popcorn/x86_64/lib/libc.a(__stdio_seek.o)
 .bss           0x0000000000823454        0x0 0x4 /usr/local/popcorn/x86_64/lib/libc.a(__stdout_write.o)
 .bss           0x0000000000823454        0x0 0x4 /usr/local/popcorn/x86_64/lib/libc.a(fwrite.o)
 .bss           0x0000000000823454        0x0 0x4 /usr/local/popcorn/x86_64/lib/libc.a(memchr.o)
 .bss           0x0000000000823454        0x0 0x4 /usr/local/popcorn/x86_64/lib/libc.a(memcpy.o)
 .bss           0x0000000000823454        0x0 0x4 /usr/local/popcorn/x86_64/lib/libc.a(__wait.o)
 .bss           0x0000000000823454        0x0 0x4 /usr/local/popcorn/x86_64/lib/libc.a(__set_thread_area.o)
 .bss           0x0000000000823454        0x0 0x4 /usr/local/popcorn/x86_64/lib/libc.a(syscall_ret.o)
 .bss           0x0000000000823454        0x0 0x4 /usr/local/popcorn/x86_64/lib/libc.a(wcrtomb.o)
 .bss           0x0000000000823454        0x0 0x4 /usr/local/popcorn/x86_64/lib/libc.a(__stdio_write.o)
 .bss           0x0000000000823454        0x0 0x4 /usr/local/popcorn/x86_64/lib/libc.a(__towrite.o)
 .bss           0x0000000000823454        0x0 0x4 /usr/local/popcorn/x86_64/lib/libc.a(__stdio_exit.o)
 .bss           0x0000000000823454        0x0 0x4 /usr/local/popcorn/x86_64/lib/libc.a(ofl.o)
 .bss           0x0000000000823454        0x0 0x4 /usr/local/popcorn/x86_64/lib/libc.a(__lock.o)
 .bss           0x0000000000823454        0x0 0x4 /usr/local/popcorn/x86_64/lib/libmigrate.a(migrate.o)
 .bss           0x0000000000823454        0x0 0x4 /usr/local/popcorn/x86_64/lib/libmigrate.a(trigger.o)
 .bss           0x0000000000823454        0x0 0x1 /usr/local/popcorn/x86_64/lib/libmigrate.a(migrate_x86_64.o)
 .bss           0x0000000000823454        0x0 0x1 /usr/local/popcorn/x86_64/lib/libmigrate.a(migrate_aarch64.o)
 .bss           0x0000000000823454        0x0 0x1 /usr/local/popcorn/x86_64/lib/libmigrate.a(migrate_powerpc64.o)
 .bss           0x0000000000823454        0x0 0x4 /usr/local/popcorn/x86_64/lib/libmigrate.a(mapping.o)
 .bss           0x0000000000823454        0x0 0x4 /usr/local/popcorn/x86_64/lib/libstack-transform.a(userspace.o)
 .bss           0x0000000000823454        0x0 0x4 /usr/local/popcorn/x86_64/lib/libstack-transform.a(init.o)
 .bss           0x0000000000823454        0x0 0x4 /usr/local/popcorn/x86_64/lib/libstack-transform.a(rewrite.o)
 .bss           0x0000000000823454        0x0 0x4 /usr/local/popcorn/x86_64/lib/libstack-transform.a(unwind.o)
 .bss           0x0000000000823454        0x0 0x4 /usr/local/popcorn/x86_64/lib/libstack-transform.a(util.o)
 .bss           0x0000000000823454        0x0 0x4 /usr/local/popcorn/x86_64/lib/libstack-transform.a(properties.o)
 .bss           0x0000000000823454        0x0 0x4 /usr/local/popcorn/x86_64/lib/libstack-transform.a(regs.o)
 .bss           0x0000000000823454        0x0 0x4 /usr/local/popcorn/x86_64/lib/libstack-transform.a(properties.o)
 .bss           0x0000000000823454        0x0 0x4 /usr/local/popcorn/x86_64/lib/libstack-transform.a(regs.o)
 .bss           0x0000000000823454        0x0 0x4 /usr/local/popcorn/x86_64/lib/libstack-transform.a(properties.o)
 .bss           0x0000000000823454        0x0 0x4 /usr/local/popcorn/x86_64/lib/libstack-transform.a(regs.o)
 .bss           0x0000000000823454        0x0 0x4 /usr/local/popcorn/x86_64/lib/libstack-transform.a(data.o)
 .bss           0x0000000000823454        0x0 0x4 /usr/local/popcorn/x86_64/lib/libelf.a(begin.o)
 .bss           0x0000000000823454        0x0 0x4 /usr/local/popcorn/x86_64/lib/libelf.a(end.o)
 .bss           0x0000000000823454        0x0 0x4 /usr/local/popcorn/x86_64/lib/libelf.a(getdata.o)
 .bss           0x0000000000823454        0x0 0x4 /usr/local/popcorn/x86_64/lib/libelf.a(getident.o)
 .bss           0x0000000000823454        0x0 0x4 /usr/local/popcorn/x86_64/lib/libelf.a(nextscn.o)
 .bss           0x0000000000823454        0x0 0x4 /usr/local/popcorn/x86_64/lib/libelf.a(strptr.o)
 .bss           0x0000000000823454        0x0 0x4 /usr/local/popcorn/x86_64/lib/libelf.a(version.o)
 .bss           0x0000000000823454        0x0 0x4 /usr/local/popcorn/x86_64/lib/libelf.a(32.getehdr.o)
 .bss           0x0000000000823454        0x0 0x4 /usr/local/popcorn/x86_64/lib/libelf.a(32.xlatetof.o)
 .bss           0x0000000000823454        0x0 0x4 /usr/local/popcorn/x86_64/lib/libelf.a(cook.o)
 .bss           0x0000000000823454        0x0 0x4 /usr/local/popcorn/x86_64/lib/libelf.a(data.o)
 .bss           0x0000000000823454        0x0 0x4 /usr/local/popcorn/x86_64/lib/libelf.a(input.o)
 .bss           0x0000000000823454        0x0 0x4 /usr/local/popcorn/x86_64/lib/libelf.a(x.elfext.o)
 .bss           0x0000000000823454        0x0 0x4 /usr/local/popcorn/x86_64/lib/libelf.a(64.xlatetof.o)
 .bss           0x0000000000823454        0x0 0x4 /usr/local/popcorn/x86_64/lib/libelf.a(gelfshdr.o)
 .bss           0x0000000000823454        0x0 0x4 /usr/local/popcorn/x86_64/lib/libelf.a(swap64.o)
 .bss           0x0000000000823454        0x0 0x4 /usr/local/popcorn/x86_64/lib/libelf.a(verdef_32_tof.o)
 .bss           0x0000000000823454        0x0 0x4 /usr/local/popcorn/x86_64/lib/libelf.a(verdef_32_tom.o)
 .bss           0x0000000000823454        0x0 0x4 /usr/local/popcorn/x86_64/lib/libelf.a(verdef_64_tof.o)
 .bss           0x0000000000823454        0x0 0x4 /usr/local/popcorn/x86_64/lib/libelf.a(verdef_64_tom.o)
 .bss           0x0000000000823454        0x0 0x4 /usr/local/popcorn/x86_64/lib/libelf.a(getscn.o)
 .bss           0x0000000000823454        0x0 0x4 /usr/local/popcorn/x86_64/lib/libelf.a(newscn.o)
 .bss           0x0000000000823454        0x0 0x4 /usr/local/popcorn/x86_64/lib/libelf.a(32.fsize.o)
 .bss           0x0000000000823454        0x0 0x4 /usr/local/popcorn/x86_64/lib/libc.a(arch_crash.o)
 .bss           0x0000000000823454        0x0 0x4 /usr/local/popcorn/x86_64/lib/libc.a(getenv.o)
 .bss           0x0000000000823454        0x0 0x4 /usr/local/popcorn/x86_64/lib/libc.a(platform.o)
 .bss           0x0000000000823454        0x0 0x4 /usr/local/popcorn/x86_64/lib/libc.a(assert.o)
 .bss           0x0000000000823454        0x0 0x4 /usr/local/popcorn/x86_64/lib/libc.a(open.o)
 .bss           0x0000000000823454        0x0 0x4 /usr/local/popcorn/x86_64/lib/libc.a(calloc.o)
 .bss           0x0000000000823454        0x0 0x4 /usr/local/popcorn/x86_64/lib/libc.a(lite_malloc.o)
 .bss           0x0000000000823454        0x0 0x4 /usr/local/popcorn/x86_64/lib/libc.a(malloc.o)
 .bss           0x0000000000823454        0x0 0x4 /usr/local/popcorn/x86_64/lib/libc.a(popcorn_malloc.o)
 .bss           0x0000000000823454        0x0 0x4 /usr/local/popcorn/x86_64/lib/libc.a(getrlimit.o)
 .bss           0x0000000000823454        0x0 0x4 /usr/local/popcorn/x86_64/lib/libc.a(syscall.o)
 .bss           0x0000000000823454        0x0 0x4 /usr/local/popcorn/x86_64/lib/libc.a(madvise.o)
 .bss           0x0000000000823454        0x0 0x4 /usr/local/popcorn/x86_64/lib/libc.a(mmap.o)
 .bss           0x0000000000823454        0x0 0x4 /usr/local/popcorn/x86_64/lib/libc.a(mremap.o)
 .bss           0x0000000000823454        0x0 0x4 /usr/local/popcorn/x86_64/lib/libc.a(munmap.o)
 .bss           0x0000000000823454        0x0 0x4 /usr/local/popcorn/x86_64/lib/libc.a(sigaction.o)
 .bss           0x0000000000823454        0x0 0x4 /usr/local/popcorn/x86_64/lib/libc.a(sigemptyset.o)
 .bss           0x0000000000823454        0x0 0x4 /usr/local/popcorn/x86_64/lib/libc.a(sigrtmin.o)
 .bss           0x0000000000823454        0x0 0x4 /usr/local/popcorn/x86_64/lib/libc.a(restore.o)
 .bss           0x0000000000823454        0x0 0x4 /usr/local/popcorn/x86_64/lib/libc.a(fclose.o)
 .bss           0x0000000000823454        0x0 0x4 /usr/local/popcorn/x86_64/lib/libc.a(fflush.o)
 .bss           0x0000000000823454        0x0 0x4 /usr/local/popcorn/x86_64/lib/libc.a(fopen.o)
 .bss           0x0000000000823454        0x0 0x4 /usr/local/popcorn/x86_64/lib/libc.a(fprintf.o)
 .bss           0x0000000000823454        0x0 0x4 /usr/local/popcorn/x86_64/lib/libc.a(fscanf.o)
 .bss           0x0000000000823454        0x0 0x4 /usr/local/popcorn/x86_64/lib/libc.a(fseek.o)
 .bss           0x0000000000823454        0x0 0x4 /usr/local/popcorn/x86_64/lib/libc.a(getc.o)
 .bss           0x0000000000823454        0x0 0x4 /usr/local/popcorn/x86_64/lib/libc.a(getline.o)
 .bss           0x0000000000823454        0x0 0x4 /usr/local/popcorn/x86_64/lib/libc.a(perror.o)
 .bss           0x0000000000823454        0x0 0x4 /usr/local/popcorn/x86_64/lib/libc.a(snprintf.o)
 .bss           0x0000000000823454        0x0 0x4 /usr/local/popcorn/x86_64/lib/libc.a(sscanf.o)
 .bss           0x0000000000823454        0x0 0x4 /usr/local/popcorn/x86_64/lib/libc.a(stderr.o)
 .bss           0x0000000000823454        0x0 0x4 /usr/local/popcorn/x86_64/lib/libc.a(vfscanf.o)
 .bss           0x0000000000823454        0x0 0x4 /usr/local/popcorn/x86_64/lib/libc.a(vsnprintf.o)
 .bss           0x0000000000823454        0x0 0x4 /usr/local/popcorn/x86_64/lib/libc.a(vsscanf.o)
 .bss           0x0000000000823454        0x0 0x4 /usr/local/popcorn/x86_64/lib/libc.a(bsearch.o)
 .bss           0x0000000000823454        0x0 0x4 /usr/local/popcorn/x86_64/lib/libc.a(qsort.o)
 .bss           0x0000000000823454        0x0 0x4 /usr/local/popcorn/x86_64/lib/libc.a(strtol.o)
 .bss           0x0000000000823454        0x0 0x4 /usr/local/popcorn/x86_64/lib/libc.a(strchr.o)
 .bss           0x0000000000823454        0x0 0x4 /usr/local/popcorn/x86_64/lib/libc.a(strchrnul.o)
 .bss           0x0000000000823454        0x0 0x4 /usr/local/popcorn/x86_64/lib/libc.a(strcmp.o)
 .bss           0x0000000000823454        0x0 0x4 /usr/local/popcorn/x86_64/lib/libc.a(strlen.o)
 .bss           0x0000000000823454        0x0 0x4 /usr/local/popcorn/x86_64/lib/libc.a(strncmp.o)
 .bss           0x0000000000823454        0x0 0x4 /usr/local/popcorn/x86_64/lib/libc.a(memmove.o)
 .bss           0x0000000000823454        0x0 0x4 /usr/local/popcorn/x86_64/lib/libc.a(__syscall_cp.o)
 .bss           0x0000000000823454        0x0 0x4 /usr/local/popcorn/x86_64/lib/libc.a(pthread_attr_get.o)
 .bss           0x0000000000823454        0x0 0x4 /usr/local/popcorn/x86_64/lib/libc.a(pthread_getattr_np.o)
 .bss           0x0000000000823454        0x0 0x4 /usr/local/popcorn/x86_64/lib/libc.a(pthread_migrate.o)
 .bss           0x0000000000823454        0x0 0x4 /usr/local/popcorn/x86_64/lib/libc.a(pthread_self.o)
 .bss           0x0000000000823454        0x0 0x4 /usr/local/popcorn/x86_64/lib/libc.a(close.o)
 .bss           0x0000000000823454        0x0 0x4 /usr/local/popcorn/x86_64/lib/libc.a(getpid.o)
 .bss           0x0000000000823454        0x0 0x4 /usr/local/popcorn/x86_64/lib/libc.a(lseek.o)
 .bss           0x0000000000823454        0x0 0x4 /usr/local/popcorn/x86_64/lib/libc.a(read.o)
 .bss           0x0000000000823454        0x0 0x4 /usr/local/popcorn/x86_64/lib/libc.a(abort.o)
 .bss           0x0000000000823454        0x0 0x4 /usr/local/popcorn/x86_64/lib/libc.a(floatscan.o)
 .bss           0x0000000000823454        0x0 0x4 /usr/local/popcorn/x86_64/lib/libc.a(intscan.o)
 .bss           0x0000000000823454        0x0 0x4 /usr/local/popcorn/x86_64/lib/libc.a(shgetc.o)
 .bss           0x0000000000823454        0x0 0x4 /usr/local/popcorn/x86_64/lib/libc.a(syscall.o)
 .bss           0x0000000000823454        0x0 0x4 /usr/local/popcorn/x86_64/lib/libc.a(expand_heap.o)
 .bss           0x0000000000823454        0x0 0x4 /usr/local/popcorn/x86_64/lib/libc.a(copysignl.o)
 .bss           0x0000000000823454        0x0 0x4 /usr/local/popcorn/x86_64/lib/libc.a(scalbn.o)
 .bss           0x0000000000823454        0x0 0x4 /usr/local/popcorn/x86_64/lib/libc.a(scalbnl.o)
 .bss           0x0000000000823454        0x0 0x4 /usr/local/popcorn/x86_64/lib/libc.a(fabs.o)
 .bss           0x0000000000823454        0x0 0x4 /usr/local/popcorn/x86_64/lib/libc.a(fmodl.o)
 .bss           0x0000000000823454        0x0 0x4 /usr/local/popcorn/x86_64/lib/libc.a(mbrtowc.o)
 .bss           0x0000000000823454        0x0 0x4 /usr/local/popcorn/x86_64/lib/libc.a(mbsinit.o)
 .bss           0x0000000000823454        0x0 0x4 /usr/local/popcorn/x86_64/lib/libc.a(block.o)
 .bss           0x0000000000823454        0x0 0x4 /usr/local/popcorn/x86_64/lib/libc.a(raise.o)
 .bss           0x0000000000823454        0x0 0x4 /usr/local/popcorn/x86_64/lib/libc.a(__fdopen.o)
 .bss           0x0000000000823454        0x0 0x4 /usr/local/popcorn/x86_64/lib/libc.a(__fmodeflags.o)
 .bss           0x0000000000823454        0x0 0x4 /usr/local/popcorn/x86_64/lib/libc.a(__stdio_read.o)
 .bss           0x0000000000823454        0x0 0x4 /usr/local/popcorn/x86_64/lib/libc.a(__string_read.o)
 .bss           0x0000000000823454        0x0 0x4 /usr/local/popcorn/x86_64/lib/libc.a(__uflow.o)
 .bss           0x0000000000823454        0x0 0x4 /usr/local/popcorn/x86_64/lib/libc.a(fputc.o)
 .bss           0x0000000000823454        0x0 0x4 /usr/local/popcorn/x86_64/lib/libc.a(getdelim.o)
 .bss           0x0000000000823454        0x0 0x4 /usr/local/popcorn/x86_64/lib/libc.a(ofl_add.o)
 .bss           0x0000000000823454        0x0 0x4 /usr/local/popcorn/x86_64/lib/libc.a(internal.o)
 .bss           0x0000000000823454        0x0 0x4 /usr/local/popcorn/x86_64/lib/libc.a(__overflow.o)
 .bss           0x0000000000823454        0x0 0x4 /usr/local/popcorn/x86_64/lib/libc.a(__toread.o)

.ldata          0x0000000000825458        0x0

.eh_frame       0x0000000000825458     0x2468
 ** eh_frame    0x0000000000825458     0x2468

.tdata          0x0000000000900000     0x1000
 ** zero fill   0x0000000000900000        0x1
 ** zero fill   0x0000000000900001      0xfff

.tbss           0x0000000000a00000    0xdf0b0
 ** zero fill   0x0000000000a00000        0x1
 ** zero fill   0x0000000000a00001      0xfff
 .tbss.src_userspace_c_bounds
                0x0000000000a01000       0x10 0x8 /usr/local/popcorn/x86_64/lib/libstack-transform.a(userspace.o)
 .tbss.src_rewrite_c_src_ctx
                0x0000000000a01010     0xb050 0x8 /usr/local/popcorn/x86_64/lib/libstack-transform.a(rewrite.o)
 .tbss.src_rewrite_c_src_regs
                0x0000000000a0c060    0x62000 0x10 /usr/local/popcorn/x86_64/lib/libstack-transform.a(rewrite.o)
 .tbss.src_rewrite_c_src_callee
                0x0000000000a6e060     0x2000 0x10 /usr/local/popcorn/x86_64/lib/libstack-transform.a(rewrite.o)
 .tbss.src_rewrite_c_dest_ctx
                0x0000000000a70060     0xb050 0x8 /usr/local/popcorn/x86_64/lib/libstack-transform.a(rewrite.o)
 .tbss.src_rewrite_c_dest_regs
                0x0000000000a7b0b0    0x62000 0x10 /usr/local/popcorn/x86_64/lib/libstack-transform.a(rewrite.o)
 .tbss.src_rewrite_c_dest_callee
                0x0000000000add0b0     0x2000 0x10 /usr/local/popcorn/x86_64/lib/libstack-transform.a(rewrite.o)

.init_array     0x0000000000a01000       0x30
 .init_array    0x0000000000a01000        0x8 0x8 /usr/local/popcorn/x86_64/lib/libmigrate.a(migrate.o)
 .init_array    0x0000000000a01008        0x8 0x8 /usr/local/popcorn/x86_64/lib/libmigrate.a(trigger.o)
 .init_array    0x0000000000a01010        0x8 0x8 /usr/local/popcorn/x86_64/lib/libmigrate.a(mapping.o)
 .init_array    0x0000000000a01018        0x8 0x8 /usr/local/popcorn/x86_64/lib/libstack-transform.a(init.o)
 .init_array    0x0000000000a01020        0x8 0x8 /usr/local/popcorn/x86_64/lib/libc.a(malloc.o)
 .init_array    0x0000000000a01028        0x8 0x8 /usr/local/popcorn/x86_64/lib/libc.a(popcorn_malloc.o)

.fini_array     0x0000000000a01030        0x8
 .fini_array    0x0000000000a01030        0x8 0x8 /usr/local/popcorn/x86_64/lib/libmigrate.a(mapping.o)

.llvm_stackmaps
                0x0000000000a02000      0x908
 .llvm_stackmaps
                0x0000000000a02000      0x130 0x8 popcorn-hello_x86_64.o
 .llvm_stackmaps
                0x0000000000a02130       0x48 0x8 /usr/local/popcorn/x86_64/lib/libc.a(__libc_start_main.o)
 .llvm_stackmaps
                0x0000000000a02178      0x3f8 0x8 /usr/local/popcorn/x86_64/lib/libmigrate.a(migrate.o)
 .llvm_stackmaps
                0x0000000000a02570      0x120 0x8 /usr/local/popcorn/x86_64/lib/libmigrate.a(trigger.o)
 .llvm_stackmaps
                0x0000000000a02690      0x278 0x8 /usr/local/popcorn/x86_64/lib/libmigrate.a(mapping.o)

.debug_str      0x0000000000000000     0x3ba7
 ** merge strings
                0x0000000000000000     0x3ba7

.debug_loc      0x0000000000000000    0x14634
 .debug_loc     0x0000000000000000        0x0 0x1 popcorn-hello_x86_64.o
 .debug_loc     0x0000000000000000       0x23 0x1 /usr/local/popcorn/x86_64/lib/crt1.o
 .debug_loc     0x0000000000000023      0x251 0x1 /usr/local/popcorn/x86_64/lib/libc.a(__libc_start_main.o)
 .debug_loc     0x0000000000000274       0x72 0x1 /usr/local/popcorn/x86_64/lib/libc.a(exit.o)
 .debug_loc     0x00000000000002e6        0x0 0x1 /usr/local/popcorn/x86_64/lib/libc.a(libc.o)
 .debug_loc     0x00000000000002e6       0x49 0x1 /usr/local/popcorn/x86_64/lib/libc.a(printf.o)
 .debug_loc     0x000000000000032f        0x0 0x1 /usr/local/popcorn/x86_64/lib/libc.a(stdout.o)
 .debug_loc     0x000000000000032f     0x44dc 0x1 /usr/local/popcorn/x86_64/lib/libc.a(vfprintf.o)
 .debug_loc     0x000000000000480b       0x8f 0x1 /usr/local/popcorn/x86_64/lib/libc.a(strnlen.o)
 .debug_loc     0x000000000000489a        0x0 0x1 /usr/local/popcorn/x86_64/lib/libc.a(__environ.o)
 .debug_loc     0x000000000000489a      0x2b4 0x1 /usr/local/popcorn/x86_64/lib/libc.a(__init_tls.o)
 .debug_loc     0x0000000000004b4e       0x23 0x1 /usr/local/popcorn/x86_64/lib/libc.a(__errno_location.o)
 .debug_loc     0x0000000000004b71       0x5d 0x1 /usr/local/popcorn/x86_64/lib/libc.a(strerror.o)
 .debug_loc     0x0000000000004bce       0x25 0x1 /usr/local/popcorn/x86_64/lib/libc.a(_Exit.o)
 .debug_loc     0x0000000000004bf3       0x59 0x1 /usr/local/popcorn/x86_64/lib/libc.a(__lctrans.o)
 .debug_loc     0x0000000000004c4c       0x3a 0x1 /usr/local/popcorn/x86_64/lib/libc.a(__fpclassifyl.o)
 .debug_loc     0x0000000000004c86        0x0 0x1 /usr/local/popcorn/x86_64/lib/libc.a(__signbitl.o)
 .debug_loc     0x0000000000004c86       0xa6 0x1 /usr/local/popcorn/x86_64/lib/libc.a(frexpl.o)
 .debug_loc     0x0000000000004d2c        0x0 0x1 /usr/local/popcorn/x86_64/lib/libc.a(wctomb.o)
 .debug_loc     0x0000000000004d2c      0x162 0x1 /usr/local/popcorn/x86_64/lib/libc.a(__lockfile.o)
 .debug_loc     0x0000000000004e8e       0x80 0x1 /usr/local/popcorn/x86_64/lib/libc.a(__stdio_close.o)
 .debug_loc     0x0000000000004f0e       0x48 0x1 /usr/local/popcorn/x86_64/lib/libc.a(__stdio_seek.o)
 .debug_loc     0x0000000000004f56       0xc5 0x1 /usr/local/popcorn/x86_64/lib/libc.a(__stdout_write.o)
 .debug_loc     0x000000000000501b      0x231 0x1 /usr/local/popcorn/x86_64/lib/libc.a(fwrite.o)
 .debug_loc     0x000000000000524c      0x15d 0x1 /usr/local/popcorn/x86_64/lib/libc.a(memchr.o)
 .debug_loc     0x00000000000053a9      0x165 0x1 /usr/local/popcorn/x86_64/lib/libc.a(__wait.o)
 .debug_loc     0x000000000000550e       0x36 0x1 /usr/local/popcorn/x86_64/lib/libc.a(syscall_ret.o)
 .debug_loc     0x0000000000005544       0x72 0x1 /usr/local/popcorn/x86_64/lib/libc.a(wcrtomb.o)
 .debug_loc     0x00000000000055b6      0x1ca 0x1 /usr/local/popcorn/x86_64/lib/libc.a(__stdio_write.o)
 .debug_loc     0x0000000000005780        0x0 0x1 /usr/local/popcorn/x86_64/lib/libc.a(__towrite.o)
 .debug_loc     0x0000000000005780       0x36 0x1 /usr/local/popcorn/x86_64/lib/libc.a(__stdio_exit.o)
 .debug_loc     0x00000000000057b6        0x0 0x1 /usr/local/popcorn/x86_64/lib/libc.a(ofl.o)
 .debug_loc     0x00000000000057b6       0xbd 0x1 /usr/local/popcorn/x86_64/lib/libc.a(__lock.o)
 .debug_loc     0x0000000000005873      0x479 0x1 /usr/local/popcorn/x86_64/lib/libmigrate.a(migrate.o)
 .debug_loc     0x0000000000005cec       0x48 0x1 /usr/local/popcorn/x86_64/lib/libmigrate.a(trigger.o)
 .debug_loc     0x0000000000005d34      0x261 0x1 /usr/local/popcorn/x86_64/lib/libmigrate.a(mapping.o)
 .debug_loc     0x0000000000005f95      0x52c 0x1 /usr/local/popcorn/x86_64/lib/libstack-transform.a(userspace.o)
 .debug_loc     0x00000000000064c1       0xb2 0x1 /usr/local/popcorn/x86_64/lib/libstack-transform.a(init.o)
 .debug_loc     0x0000000000006573      0x827 0x1 /usr/local/popcorn/x86_64/lib/libstack-transform.a(rewrite.o)
 .debug_loc     0x0000000000006d9a      0x7c5 0x1 /usr/local/popcorn/x86_64/lib/libstack-transform.a(unwind.o)
 .debug_loc     0x000000000000755f      0x71b 0x1 /usr/local/popcorn/x86_64/lib/libstack-transform.a(util.o)
 .debug_loc     0x0000000000007c7a       0x74 0x1 /usr/local/popcorn/x86_64/lib/libstack-transform.a(properties.o)
 .debug_loc     0x0000000000007cee      0x6c5 0x1 /usr/local/popcorn/x86_64/lib/libstack-transform.a(regs.o)
 .debug_loc     0x00000000000083b3       0xbd 0x1 /usr/local/popcorn/x86_64/lib/libstack-transform.a(properties.o)
 .debug_loc     0x0000000000008470      0x6db 0x1 /usr/local/popcorn/x86_64/lib/libstack-transform.a(regs.o)
 .debug_loc     0x0000000000008b4b       0x74 0x1 /usr/local/popcorn/x86_64/lib/libstack-transform.a(properties.o)
 .debug_loc     0x0000000000008bbf      0x4b7 0x1 /usr/local/popcorn/x86_64/lib/libstack-transform.a(regs.o)
 .debug_loc     0x0000000000009076      0xc96 0x1 /usr/local/popcorn/x86_64/lib/libstack-transform.a(data.o)
 .debug_loc     0x0000000000009d0c       0xd8 0x1 /usr/local/popcorn/x86_64/lib/libc.a(arch_crash.o)
 .debug_loc     0x0000000000009de4       0x7c 0x1 /usr/local/popcorn/x86_64/lib/libc.a(getenv.o)
 .debug_loc     0x0000000000009e60       0xd7 0x1 /usr/local/popcorn/x86_64/lib/libc.a(platform.o)
 .debug_loc     0x0000000000009f37       0xdc 0x1 /usr/local/popcorn/x86_64/lib/libc.a(assert.o)
 .debug_loc     0x000000000000a013       0x95 0x1 /usr/local/popcorn/x86_64/lib/libc.a(open.o)
 .debug_loc     0x000000000000a0a8      0x229 0x1 /usr/local/popcorn/x86_64/lib/libc.a(calloc.o)
 .debug_loc     0x000000000000a2d1      0x197 0x1 /usr/local/popcorn/x86_64/lib/libc.a(lite_malloc.o)
 .debug_loc     0x000000000000a468     0x13b8 0x1 /usr/local/popcorn/x86_64/lib/libc.a(malloc.o)
 .debug_loc     0x000000000000b820     0x200a 0x1 /usr/local/popcorn/x86_64/lib/libc.a(popcorn_malloc.o)
 .debug_loc     0x000000000000d82a       0xc6 0x1 /usr/local/popcorn/x86_64/lib/libc.a(getrlimit.o)
 .debug_loc     0x000000000000d8f0      0x118 0x1 /usr/local/popcorn/x86_64/lib/libc.a(syscall.o)
 .debug_loc     0x000000000000da08       0x25 0x1 /usr/local/popcorn/x86_64/lib/libc.a(madvise.o)
 .debug_loc     0x000000000000da2d      0x263 0x1 /usr/local/popcorn/x86_64/lib/libc.a(mmap.o)
 .debug_loc     0x000000000000dc90      0x14d 0x1 /usr/local/popcorn/x86_64/lib/libc.a(mremap.o)
 .debug_loc     0x000000000000dddd       0x92 0x1 /usr/local/popcorn/x86_64/lib/libc.a(munmap.o)
 .debug_loc     0x000000000000de6f      0x10f 0x1 /usr/local/popcorn/x86_64/lib/libc.a(sigaction.o)
 .debug_loc     0x000000000000df7e        0x0 0x1 /usr/local/popcorn/x86_64/lib/libc.a(sigemptyset.o)
 .debug_loc     0x000000000000df7e        0x0 0x1 /usr/local/popcorn/x86_64/lib/libc.a(sigrtmin.o)
 .debug_loc     0x000000000000df7e       0xb8 0x1 /usr/local/popcorn/x86_64/lib/libc.a(fclose.o)
 .debug_loc     0x000000000000e036       0xcb 0x1 /usr/local/popcorn/x86_64/lib/libc.a(fflush.o)
 .debug_loc     0x000000000000e101      0x165 0x1 /usr/local/popcorn/x86_64/lib/libc.a(fopen.o)
 .debug_loc     0x000000000000e266        0x0 0x1 /usr/local/popcorn/x86_64/lib/libc.a(fprintf.o)
 .debug_loc     0x000000000000e266        0x0 0x1 /usr/local/popcorn/x86_64/lib/libc.a(fscanf.o)
 .debug_loc     0x000000000000e266      0x1ac 0x1 /usr/local/popcorn/x86_64/lib/libc.a(fseek.o)
 .debug_loc     0x000000000000e412       0x49 0x1 /usr/local/popcorn/x86_64/lib/libc.a(getc.o)
 .debug_loc     0x000000000000e45b       0x49 0x1 /usr/local/popcorn/x86_64/lib/libc.a(getline.o)
 .debug_loc     0x000000000000e4a4       0xa1 0x1 /usr/local/popcorn/x86_64/lib/libc.a(perror.o)
 .debug_loc     0x000000000000e545        0x0 0x1 /usr/local/popcorn/x86_64/lib/libc.a(snprintf.o)
 .debug_loc     0x000000000000e545        0x0 0x1 /usr/local/popcorn/x86_64/lib/libc.a(sscanf.o)
 .debug_loc     0x000000000000e545        0x0 0x1 /usr/local/popcorn/x86_64/lib/libc.a(stderr.o)
 .debug_loc     0x000000000000e545      0xf84 0x1 /usr/local/popcorn/x86_64/lib/libc.a(vfscanf.o)
 .debug_loc     0x000000000000f4c9      0x230 0x1 /usr/local/popcorn/x86_64/lib/libc.a(vsnprintf.o)
 .debug_loc     0x000000000000f6f9       0xec 0x1 /usr/local/popcorn/x86_64/lib/libc.a(vsscanf.o)
 .debug_loc     0x000000000000f7e5      0x191 0x1 /usr/local/popcorn/x86_64/lib/libc.a(bsearch.o)
 .debug_loc     0x000000000000f976      0xf9b 0x1 /usr/local/popcorn/x86_64/lib/libc.a(qsort.o)
 .debug_loc     0x0000000000010911      0x181 0x1 /usr/local/popcorn/x86_64/lib/libc.a(strtol.o)
 .debug_loc     0x0000000000010a92       0x5d 0x1 /usr/local/popcorn/x86_64/lib/libc.a(strchr.o)
 .debug_loc     0x0000000000010aef       0xc8 0x1 /usr/local/popcorn/x86_64/lib/libc.a(strchrnul.o)
 .debug_loc     0x0000000000010bb7       0x6c 0x1 /usr/local/popcorn/x86_64/lib/libc.a(strcmp.o)
 .debug_loc     0x0000000000010c23       0xb8 0x1 /usr/local/popcorn/x86_64/lib/libc.a(strlen.o)
 .debug_loc     0x0000000000010cdb       0xd5 0x1 /usr/local/popcorn/x86_64/lib/libc.a(strncmp.o)
 .debug_loc     0x0000000000010db0       0x24 0x1 /usr/local/popcorn/x86_64/lib/libc.a(__syscall_cp.o)
 .debug_loc     0x0000000000010dd4        0x0 0x1 /usr/local/popcorn/x86_64/lib/libc.a(pthread_attr_get.o)
 .debug_loc     0x0000000000010dd4       0xf1 0x1 /usr/local/popcorn/x86_64/lib/libc.a(pthread_getattr_np.o)
 .debug_loc     0x0000000000010ec5       0x23 0x1 /usr/local/popcorn/x86_64/lib/libc.a(pthread_migrate.o)
 .debug_loc     0x0000000000010ee8        0x0 0x1 /usr/local/popcorn/x86_64/lib/libc.a(pthread_self.o)
 .debug_loc     0x0000000000010ee8       0x74 0x1 /usr/local/popcorn/x86_64/lib/libc.a(close.o)
 .debug_loc     0x0000000000010f5c        0x0 0x1 /usr/local/popcorn/x86_64/lib/libc.a(getpid.o)
 .debug_loc     0x0000000000010f5c       0x4a 0x1 /usr/local/popcorn/x86_64/lib/libc.a(lseek.o)
 .debug_loc     0x0000000000010fa6       0xb7 0x1 /usr/local/popcorn/x86_64/lib/libc.a(read.o)
 .debug_loc     0x000000000001105d        0x0 0x1 /usr/local/popcorn/x86_64/lib/libc.a(abort.o)
 .debug_loc     0x000000000001105d     0x1666 0x1 /usr/local/popcorn/x86_64/lib/libc.a(floatscan.o)
 .debug_loc     0x00000000000126c3      0x76d 0x1 /usr/local/popcorn/x86_64/lib/libc.a(intscan.o)
 .debug_loc     0x0000000000012e30       0x83 0x1 /usr/local/popcorn/x86_64/lib/libc.a(shgetc.o)
 .debug_loc     0x0000000000012eb3      0x5d1 0x1 /usr/local/popcorn/x86_64/lib/libc.a(expand_heap.o)
 .debug_loc     0x0000000000013484        0x0 0x1 /usr/local/popcorn/x86_64/lib/libc.a(copysignl.o)
 .debug_loc     0x0000000000013484      0x148 0x1 /usr/local/popcorn/x86_64/lib/libc.a(scalbn.o)
 .debug_loc     0x00000000000135cc       0xa3 0x1 /usr/local/popcorn/x86_64/lib/libc.a(scalbnl.o)
 .debug_loc     0x000000000001366f      0x219 0x1 /usr/local/popcorn/x86_64/lib/libc.a(mbrtowc.o)
 .debug_loc     0x0000000000013888        0x0 0x1 /usr/local/popcorn/x86_64/lib/libc.a(mbsinit.o)
 .debug_loc     0x0000000000013888       0xdb 0x1 /usr/local/popcorn/x86_64/lib/libc.a(block.o)
 .debug_loc     0x0000000000013963       0xa5 0x1 /usr/local/popcorn/x86_64/lib/libc.a(raise.o)
 .debug_loc     0x0000000000013a08      0x18d 0x1 /usr/local/popcorn/x86_64/lib/libc.a(__fdopen.o)
 .debug_loc     0x0000000000013b95       0xaf 0x1 /usr/local/popcorn/x86_64/lib/libc.a(__fmodeflags.o)
 .debug_loc     0x0000000000013c44      0x147 0x1 /usr/local/popcorn/x86_64/lib/libc.a(__stdio_read.o)
 .debug_loc     0x0000000000013d8b      0x144 0x1 /usr/local/popcorn/x86_64/lib/libc.a(__string_read.o)
 .debug_loc     0x0000000000013ecf       0x5a 0x1 /usr/local/popcorn/x86_64/lib/libc.a(__uflow.o)
 .debug_loc     0x0000000000013f29       0x83 0x1 /usr/local/popcorn/x86_64/lib/libc.a(fputc.o)
 .debug_loc     0x0000000000013fac      0x513 0x1 /usr/local/popcorn/x86_64/lib/libc.a(getdelim.o)
 .debug_loc     0x00000000000144bf       0x59 0x1 /usr/local/popcorn/x86_64/lib/libc.a(ofl_add.o)
 .debug_loc     0x0000000000014518        0x0 0x1 /usr/local/popcorn/x86_64/lib/libc.a(internal.o)
 .debug_loc     0x0000000000014518       0xe6 0x1 /usr/local/popcorn/x86_64/lib/libc.a(__overflow.o)
 .debug_loc     0x00000000000145fe       0x36 0x1 /usr/local/popcorn/x86_64/lib/libc.a(__toread.o)

.debug_abbrev   0x0000000000000000     0x7c4f
 .debug_abbrev  0x0000000000000000       0x4c 0x1 popcorn-hello_x86_64.o
 .debug_abbrev  0x000000000000004c       0x67 0x1 /usr/local/popcorn/x86_64/lib/crt1.o
 .debug_abbrev  0x00000000000000b3      0x1c0 0x1 /usr/local/popcorn/x86_64/lib/libc.a(__libc_start_main.o)
 .debug_abbrev  0x0000000000000273       0xa9 0x1 /usr/local/popcorn/x86_64/lib/libc.a(exit.o)
 .debug_abbrev  0x000000000000031c       0x96 0x1 /usr/local/popcorn/x86_64/lib/libc.a(libc.o)
 .debug_abbrev  0x00000000000003b2       0xc0 0x1 /usr/local/popcorn/x86_64/lib/libc.a(printf.o)
 .debug_abbrev  0x0000000000000472       0xcb 0x1 /usr/local/popcorn/x86_64/lib/libc.a(stdout.o)
 .debug_abbrev  0x000000000000053d      0x2be 0x1 /usr/local/popcorn/x86_64/lib/libc.a(vfprintf.o)
 .debug_abbrev  0x00000000000007fb       0x78 0x1 /usr/local/popcorn/x86_64/lib/libc.a(strnlen.o)
 .debug_abbrev  0x0000000000000873       0x28 0x1 /usr/local/popcorn/x86_64/lib/libc.a(memset.o)
 .debug_abbrev  0x000000000000089b       0x36 0x1 /usr/local/popcorn/x86_64/lib/libc.a(__environ.o)
 .debug_abbrev  0x00000000000008d1      0x1cd 0x1 /usr/local/popcorn/x86_64/lib/libc.a(__init_tls.o)
 .debug_abbrev  0x0000000000000a9e      0x12d 0x1 /usr/local/popcorn/x86_64/lib/libc.a(__errno_location.o)
 .debug_abbrev  0x0000000000000bcb      0x17d 0x1 /usr/local/popcorn/x86_64/lib/libc.a(strerror.o)
 .debug_abbrev  0x0000000000000d48       0x92 0x1 /usr/local/popcorn/x86_64/lib/libc.a(_Exit.o)
 .debug_abbrev  0x0000000000000dda      0x162 0x1 /usr/local/popcorn/x86_64/lib/libc.a(__lctrans.o)
 .debug_abbrev  0x0000000000000f3c       0xad 0x1 /usr/local/popcorn/x86_64/lib/libc.a(__fpclassifyl.o)
 .debug_abbrev  0x0000000000000fe9       0x91 0x1 /usr/local/popcorn/x86_64/lib/libc.a(__signbitl.o)
 .debug_abbrev  0x000000000000107a       0xa5 0x1 /usr/local/popcorn/x86_64/lib/libc.a(frexpl.o)
 .debug_abbrev  0x000000000000111f       0x62 0x1 /usr/local/popcorn/x86_64/lib/libc.a(wctomb.o)
 .debug_abbrev  0x0000000000001181      0x1c1 0x1 /usr/local/popcorn/x86_64/lib/libc.a(__lockfile.o)
 .debug_abbrev  0x0000000000001342      0x13c 0x1 /usr/local/popcorn/x86_64/lib/libc.a(__stdio_close.o)
 .debug_abbrev  0x000000000000147e      0x130 0x1 /usr/local/popcorn/x86_64/lib/libc.a(__stdio_seek.o)
 .debug_abbrev  0x00000000000015ae      0x121 0x1 /usr/local/popcorn/x86_64/lib/libc.a(__stdout_write.o)
 .debug_abbrev  0x00000000000016cf      0x112 0x1 /usr/local/popcorn/x86_64/lib/libc.a(fwrite.o)
 .debug_abbrev  0x00000000000017e1       0x8b 0x1 /usr/local/popcorn/x86_64/lib/libc.a(memchr.o)
 .debug_abbrev  0x000000000000186c       0x28 0x1 /usr/local/popcorn/x86_64/lib/libc.a(memcpy.o)
 .debug_abbrev  0x0000000000001894      0x120 0x1 /usr/local/popcorn/x86_64/lib/libc.a(__wait.o)
 .debug_abbrev  0x00000000000019b4       0x28 0x1 /usr/local/popcorn/x86_64/lib/libc.a(__set_thread_area.o)
 .debug_abbrev  0x00000000000019dc       0x4e 0x1 /usr/local/popcorn/x86_64/lib/libc.a(syscall_ret.o)
 .debug_abbrev  0x0000000000001a2a      0x16a 0x1 /usr/local/popcorn/x86_64/lib/libc.a(wcrtomb.o)
 .debug_abbrev  0x0000000000001b94      0x168 0x1 /usr/local/popcorn/x86_64/lib/libc.a(__stdio_write.o)
 .debug_abbrev  0x0000000000001cfc       0xeb 0x1 /usr/local/popcorn/x86_64/lib/libc.a(__towrite.o)
 .debug_abbrev  0x0000000000001de7      0x105 0x1 /usr/local/popcorn/x86_64/lib/libc.a(__stdio_exit.o)
 .debug_abbrev  0x0000000000001eec       0xed 0x1 /usr/local/popcorn/x86_64/lib/libc.a(ofl.o)
 .debug_abbrev  0x0000000000001fd9       0xee 0x1 /usr/local/popcorn/x86_64/lib/libc.a(__lock.o)
 .debug_abbrev  0x00000000000020c7      0x215 0x1 /usr/local/popcorn/x86_64/lib/libmigrate.a(migrate.o)
 .debug_abbrev  0x00000000000022dc      0x13b 0x1 /usr/local/popcorn/x86_64/lib/libmigrate.a(trigger.o)
 .debug_abbrev  0x0000000000002417      0x129 0x1 /usr/local/popcorn/x86_64/lib/libmigrate.a(mapping.o)
 .debug_abbrev  0x0000000000002540      0x25c 0x1 /usr/local/popcorn/x86_64/lib/libstack-transform.a(userspace.o)
 .debug_abbrev  0x000000000000279c      0x172 0x1 /usr/local/popcorn/x86_64/lib/libstack-transform.a(init.o)
 .debug_abbrev  0x000000000000290e      0x29c 0x1 /usr/local/popcorn/x86_64/lib/libstack-transform.a(rewrite.o)
 .debug_abbrev  0x0000000000002baa      0x205 0x1 /usr/local/popcorn/x86_64/lib/libstack-transform.a(unwind.o)
 .debug_abbrev  0x0000000000002daf      0x1a0 0x1 /usr/local/popcorn/x86_64/lib/libstack-transform.a(util.o)
 .debug_abbrev  0x0000000000002f4f       0xe2 0x1 /usr/local/popcorn/x86_64/lib/libstack-transform.a(properties.o)
 .debug_abbrev  0x0000000000003031      0x12a 0x1 /usr/local/popcorn/x86_64/lib/libstack-transform.a(regs.o)
 .debug_abbrev  0x000000000000315b       0xf1 0x1 /usr/local/popcorn/x86_64/lib/libstack-transform.a(properties.o)
 .debug_abbrev  0x000000000000324c      0x12a 0x1 /usr/local/popcorn/x86_64/lib/libstack-transform.a(regs.o)
 .debug_abbrev  0x0000000000003376       0xe2 0x1 /usr/local/popcorn/x86_64/lib/libstack-transform.a(properties.o)
 .debug_abbrev  0x0000000000003458      0x12a 0x1 /usr/local/popcorn/x86_64/lib/libstack-transform.a(regs.o)
 .debug_abbrev  0x0000000000003582      0x267 0x1 /usr/local/popcorn/x86_64/lib/libstack-transform.a(data.o)
 .debug_abbrev  0x00000000000037e9       0xb1 0x1 /usr/local/popcorn/x86_64/lib/libc.a(arch_crash.o)
 .debug_abbrev  0x000000000000389a       0x81 0x1 /usr/local/popcorn/x86_64/lib/libc.a(getenv.o)
 .debug_abbrev  0x000000000000391b      0x118 0x1 /usr/local/popcorn/x86_64/lib/libc.a(platform.o)
 .debug_abbrev  0x0000000000003a33       0x5a 0x1 /usr/local/popcorn/x86_64/lib/libc.a(assert.o)
 .debug_abbrev  0x0000000000003a8d      0x12f 0x1 /usr/local/popcorn/x86_64/lib/libc.a(open.o)
 .debug_abbrev  0x0000000000003bbc       0xab 0x1 /usr/local/popcorn/x86_64/lib/libc.a(calloc.o)
 .debug_abbrev  0x0000000000003c67       0xac 0x1 /usr/local/popcorn/x86_64/lib/libc.a(lite_malloc.o)
 .debug_abbrev  0x0000000000003d13      0x29b 0x1 /usr/local/popcorn/x86_64/lib/libc.a(malloc.o)
 .debug_abbrev  0x0000000000003fae      0x256 0x1 /usr/local/popcorn/x86_64/lib/libc.a(popcorn_malloc.o)
 .debug_abbrev  0x0000000000004204      0x106 0x1 /usr/local/popcorn/x86_64/lib/libc.a(getrlimit.o)
 .debug_abbrev  0x000000000000430a      0x11b 0x1 /usr/local/popcorn/x86_64/lib/libc.a(syscall.o)
 .debug_abbrev  0x0000000000004425       0xbe 0x1 /usr/local/popcorn/x86_64/lib/libc.a(madvise.o)
 .debug_abbrev  0x00000000000044e3       0xd7 0x1 /usr/local/popcorn/x86_64/lib/libc.a(mmap.o)
 .debug_abbrev  0x00000000000045ba      0x113 0x1 /usr/local/popcorn/x86_64/lib/libc.a(mremap.o)
 .debug_abbrev  0x00000000000046cd       0xc8 0x1 /usr/local/popcorn/x86_64/lib/libc.a(munmap.o)
 .debug_abbrev  0x0000000000004795      0x1db 0x1 /usr/local/popcorn/x86_64/lib/libc.a(sigaction.o)
 .debug_abbrev  0x0000000000004970       0x99 0x1 /usr/local/popcorn/x86_64/lib/libc.a(sigemptyset.o)
 .debug_abbrev  0x0000000000004a09       0x3d 0x1 /usr/local/popcorn/x86_64/lib/libc.a(sigrtmin.o)
 .debug_abbrev  0x0000000000004a46       0x28 0x1 /usr/local/popcorn/x86_64/lib/libc.a(restore.o)
 .debug_abbrev  0x0000000000004a6e      0x11f 0x1 /usr/local/popcorn/x86_64/lib/libc.a(fclose.o)
 .debug_abbrev  0x0000000000004b8d       0xf9 0x1 /usr/local/popcorn/x86_64/lib/libc.a(fflush.o)
 .debug_abbrev  0x0000000000004c86      0x149 0x1 /usr/local/popcorn/x86_64/lib/libc.a(fopen.o)
 .debug_abbrev  0x0000000000004dcf       0xd6 0x1 /usr/local/popcorn/x86_64/lib/libc.a(fprintf.o)
 .debug_abbrev  0x0000000000004ea5       0xd6 0x1 /usr/local/popcorn/x86_64/lib/libc.a(fscanf.o)
 .debug_abbrev  0x0000000000004f7b       0xfd 0x1 /usr/local/popcorn/x86_64/lib/libc.a(fseek.o)
 .debug_abbrev  0x0000000000005078       0xdf 0x1 /usr/local/popcorn/x86_64/lib/libc.a(getc.o)
 .debug_abbrev  0x0000000000005157       0x8e 0x1 /usr/local/popcorn/x86_64/lib/libc.a(getline.o)
 .debug_abbrev  0x00000000000051e5       0xdf 0x1 /usr/local/popcorn/x86_64/lib/libc.a(perror.o)
 .debug_abbrev  0x00000000000052c4       0xc0 0x1 /usr/local/popcorn/x86_64/lib/libc.a(snprintf.o)
 .debug_abbrev  0x0000000000005384       0xc0 0x1 /usr/local/popcorn/x86_64/lib/libc.a(sscanf.o)
 .debug_abbrev  0x0000000000005444       0xc2 0x1 /usr/local/popcorn/x86_64/lib/libc.a(stderr.o)
 .debug_abbrev  0x0000000000005506      0x1e4 0x1 /usr/local/popcorn/x86_64/lib/libc.a(vfscanf.o)
 .debug_abbrev  0x00000000000056ea      0x13c 0x1 /usr/local/popcorn/x86_64/lib/libc.a(vsnprintf.o)
 .debug_abbrev  0x0000000000005826      0x12f 0x1 /usr/local/popcorn/x86_64/lib/libc.a(vsscanf.o)
 .debug_abbrev  0x0000000000005955       0x8b 0x1 /usr/local/popcorn/x86_64/lib/libc.a(bsearch.o)
 .debug_abbrev  0x00000000000059e0      0x1a6 0x1 /usr/local/popcorn/x86_64/lib/libc.a(qsort.o)
 .debug_abbrev  0x0000000000005b86      0x166 0x1 /usr/local/popcorn/x86_64/lib/libc.a(strtol.o)
 .debug_abbrev  0x0000000000005cec       0x7a 0x1 /usr/local/popcorn/x86_64/lib/libc.a(strchr.o)
 .debug_abbrev  0x0000000000005d66       0x8c 0x1 /usr/local/popcorn/x86_64/lib/libc.a(strchrnul.o)
 .debug_abbrev  0x0000000000005df2       0x5c 0x1 /usr/local/popcorn/x86_64/lib/libc.a(strcmp.o)
 .debug_abbrev  0x0000000000005e4e       0x8c 0x1 /usr/local/popcorn/x86_64/lib/libc.a(strlen.o)
 .debug_abbrev  0x0000000000005eda       0x7d 0x1 /usr/local/popcorn/x86_64/lib/libc.a(strncmp.o)
 .debug_abbrev  0x0000000000005f57       0x28 0x1 /usr/local/popcorn/x86_64/lib/libc.a(memmove.o)
 .debug_abbrev  0x0000000000005f7f       0x85 0x1 /usr/local/popcorn/x86_64/lib/libc.a(__syscall_cp.o)
 .debug_abbrev  0x0000000000006004       0xfd 0x1 /usr/local/popcorn/x86_64/lib/libc.a(pthread_attr_get.o)
 .debug_abbrev  0x0000000000006101      0x128 0x1 /usr/local/popcorn/x86_64/lib/libc.a(pthread_getattr_np.o)
 .debug_abbrev  0x0000000000006229      0x15e 0x1 /usr/local/popcorn/x86_64/lib/libc.a(pthread_migrate.o)
 .debug_abbrev  0x0000000000006387      0x129 0x1 /usr/local/popcorn/x86_64/lib/libc.a(pthread_self.o)
 .debug_abbrev  0x00000000000064b0       0x78 0x1 /usr/local/popcorn/x86_64/lib/libc.a(close.o)
 .debug_abbrev  0x0000000000006528       0x9b 0x1 /usr/local/popcorn/x86_64/lib/libc.a(getpid.o)
 .debug_abbrev  0x00000000000065c3       0xb9 0x1 /usr/local/popcorn/x86_64/lib/libc.a(lseek.o)
 .debug_abbrev  0x000000000000667c       0x60 0x1 /usr/local/popcorn/x86_64/lib/libc.a(read.o)
 .debug_abbrev  0x00000000000066dc       0x51 0x1 /usr/local/popcorn/x86_64/lib/libc.a(abort.o)
 .debug_abbrev  0x000000000000672d      0x1fa 0x1 /usr/local/popcorn/x86_64/lib/libc.a(floatscan.o)
 .debug_abbrev  0x0000000000006927      0x12e 0x1 /usr/local/popcorn/x86_64/lib/libc.a(intscan.o)
 .debug_abbrev  0x0000000000006a55      0x10b 0x1 /usr/local/popcorn/x86_64/lib/libc.a(shgetc.o)
 .debug_abbrev  0x0000000000006b60       0x28 0x1 /usr/local/popcorn/x86_64/lib/libc.a(syscall.o)
 .debug_abbrev  0x0000000000006b88      0x14a 0x1 /usr/local/popcorn/x86_64/lib/libc.a(expand_heap.o)
 .debug_abbrev  0x0000000000006cd2       0x91 0x1 /usr/local/popcorn/x86_64/lib/libc.a(copysignl.o)
 .debug_abbrev  0x0000000000006d63       0x93 0x1 /usr/local/popcorn/x86_64/lib/libc.a(scalbn.o)
 .debug_abbrev  0x0000000000006df6       0xa0 0x1 /usr/local/popcorn/x86_64/lib/libc.a(scalbnl.o)
 .debug_abbrev  0x0000000000006e96       0x28 0x1 /usr/local/popcorn/x86_64/lib/libc.a(fabs.o)
 .debug_abbrev  0x0000000000006ebe       0x28 0x1 /usr/local/popcorn/x86_64/lib/libc.a(fmodl.o)
 .debug_abbrev  0x0000000000006ee6      0x179 0x1 /usr/local/popcorn/x86_64/lib/libc.a(mbrtowc.o)
 .debug_abbrev  0x000000000000705f       0x85 0x1 /usr/local/popcorn/x86_64/lib/libc.a(mbsinit.o)
 .debug_abbrev  0x00000000000070e4       0xda 0x1 /usr/local/popcorn/x86_64/lib/libc.a(block.o)
 .debug_abbrev  0x00000000000071be       0xf0 0x1 /usr/local/popcorn/x86_64/lib/libc.a(raise.o)
 .debug_abbrev  0x00000000000072ae      0x14b 0x1 /usr/local/popcorn/x86_64/lib/libc.a(__fdopen.o)
 .debug_abbrev  0x00000000000073f9       0x6b 0x1 /usr/local/popcorn/x86_64/lib/libc.a(__fmodeflags.o)
 .debug_abbrev  0x0000000000007464      0x15b 0x1 /usr/local/popcorn/x86_64/lib/libc.a(__stdio_read.o)
 .debug_abbrev  0x00000000000075bf       0xe1 0x1 /usr/local/popcorn/x86_64/lib/libc.a(__string_read.o)
 .debug_abbrev  0x00000000000076a0       0xe1 0x1 /usr/local/popcorn/x86_64/lib/libc.a(__uflow.o)
 .debug_abbrev  0x0000000000007781       0xd2 0x1 /usr/local/popcorn/x86_64/lib/libc.a(fputc.o)
 .debug_abbrev  0x0000000000007853       0xf1 0x1 /usr/local/popcorn/x86_64/lib/libc.a(getdelim.o)
 .debug_abbrev  0x0000000000007944       0xe1 0x1 /usr/local/popcorn/x86_64/lib/libc.a(ofl_add.o)
 .debug_abbrev  0x0000000000007a25       0x5e 0x1 /usr/local/popcorn/x86_64/lib/libc.a(internal.o)
 .debug_abbrev  0x0000000000007a83       0xe1 0x1 /usr/local/popcorn/x86_64/lib/libc.a(__overflow.o)
 .debug_abbrev  0x0000000000007b64       0xeb 0x1 /usr/local/popcorn/x86_64/lib/libc.a(__toread.o)

.debug_info     0x0000000000000000    0x1b49e
 .debug_info    0x0000000000000000       0x79 0x1 popcorn-hello_x86_64.o
 .debug_info    0x0000000000000079       0x91 0x1 /usr/local/popcorn/x86_64/lib/crt1.o
 .debug_info    0x000000000000010a      0x30b 0x1 /usr/local/popcorn/x86_64/lib/libc.a(__libc_start_main.o)
 .debug_info    0x0000000000000415       0xb0 0x1 /usr/local/popcorn/x86_64/lib/libc.a(exit.o)
 .debug_info    0x00000000000004c5      0x1d7 0x1 /usr/local/popcorn/x86_64/lib/libc.a(libc.o)
 .debug_info    0x000000000000069c      0x105 0x1 /usr/local/popcorn/x86_64/lib/libc.a(printf.o)
 .debug_info    0x00000000000007a1      0x337 0x1 /usr/local/popcorn/x86_64/lib/libc.a(stdout.o)
 .debug_info    0x0000000000000ad8     0x111f 0x1 /usr/local/popcorn/x86_64/lib/libc.a(vfprintf.o)
 .debug_info    0x0000000000001bf7       0x95 0x1 /usr/local/popcorn/x86_64/lib/libc.a(strnlen.o)
 .debug_info    0x0000000000001c8c       0xa2 0x1 /usr/local/popcorn/x86_64/lib/libc.a(memset.o)
 .debug_info    0x0000000000001d2e       0x45 0x1 /usr/local/popcorn/x86_64/lib/libc.a(__environ.o)
 .debug_info    0x0000000000001d73      0x763 0x1 /usr/local/popcorn/x86_64/lib/libc.a(__init_tls.o)
 .debug_info    0x00000000000024d6      0x3a7 0x1 /usr/local/popcorn/x86_64/lib/libc.a(__errno_location.o)
 .debug_info    0x000000000000287d      0x498 0x1 /usr/local/popcorn/x86_64/lib/libc.a(strerror.o)
 .debug_info    0x0000000000002d15       0xc7 0x1 /usr/local/popcorn/x86_64/lib/libc.a(_Exit.o)
 .debug_info    0x0000000000002ddc      0x469 0x1 /usr/local/popcorn/x86_64/lib/libc.a(__lctrans.o)
 .debug_info    0x0000000000003245       0xed 0x1 /usr/local/popcorn/x86_64/lib/libc.a(__fpclassifyl.o)
 .debug_info    0x0000000000003332       0xd3 0x1 /usr/local/popcorn/x86_64/lib/libc.a(__signbitl.o)
 .debug_info    0x0000000000003405       0xf2 0x1 /usr/local/popcorn/x86_64/lib/libc.a(frexpl.o)
 .debug_info    0x00000000000034f7       0x7f 0x1 /usr/local/popcorn/x86_64/lib/libc.a(wctomb.o)
 .debug_info    0x0000000000003576      0x783 0x1 /usr/local/popcorn/x86_64/lib/libc.a(__lockfile.o)
 .debug_info    0x0000000000003cf9      0x37b 0x1 /usr/local/popcorn/x86_64/lib/libc.a(__stdio_close.o)
 .debug_info    0x0000000000004074      0x38d 0x1 /usr/local/popcorn/x86_64/lib/libc.a(__stdio_seek.o)
 .debug_info    0x0000000000004401      0x3d9 0x1 /usr/local/popcorn/x86_64/lib/libc.a(__stdout_write.o)
 .debug_info    0x00000000000047da      0x3dc 0x1 /usr/local/popcorn/x86_64/lib/libc.a(fwrite.o)
 .debug_info    0x0000000000004bb6       0xf3 0x1 /usr/local/popcorn/x86_64/lib/libc.a(memchr.o)
 .debug_info    0x0000000000004ca9       0xc2 0x1 /usr/local/popcorn/x86_64/lib/libc.a(memcpy.o)
 .debug_info    0x0000000000004d6b      0x1d5 0x1 /usr/local/popcorn/x86_64/lib/libc.a(__wait.o)
 .debug_info    0x0000000000004f40       0xb7 0x1 /usr/local/popcorn/x86_64/lib/libc.a(__set_thread_area.o)
 .debug_info    0x0000000000004ff7       0x62 0x1 /usr/local/popcorn/x86_64/lib/libc.a(syscall_ret.o)
 .debug_info    0x0000000000005059      0x462 0x1 /usr/local/popcorn/x86_64/lib/libc.a(wcrtomb.o)
 .debug_info    0x00000000000054bb      0x405 0x1 /usr/local/popcorn/x86_64/lib/libc.a(__stdio_write.o)
 .debug_info    0x00000000000058c0      0x314 0x1 /usr/local/popcorn/x86_64/lib/libc.a(__towrite.o)
 .debug_info    0x0000000000005bd4      0x338 0x1 /usr/local/popcorn/x86_64/lib/libc.a(__stdio_exit.o)
 .debug_info    0x0000000000005f0c      0x341 0x1 /usr/local/popcorn/x86_64/lib/libc.a(ofl.o)
 .debug_info    0x000000000000624d      0x1e9 0x1 /usr/local/popcorn/x86_64/lib/libc.a(__lock.o)
 .debug_info    0x0000000000006436      0x42e 0x1 /usr/local/popcorn/x86_64/lib/libmigrate.a(migrate.o)
 .debug_info    0x0000000000006864      0x3de 0x1 /usr/local/popcorn/x86_64/lib/libmigrate.a(trigger.o)
 .debug_info    0x0000000000006c42      0x2a6 0x1 /usr/local/popcorn/x86_64/lib/libmigrate.a(mapping.o)
 .debug_info    0x0000000000006ee8      0xce3 0x1 /usr/local/popcorn/x86_64/lib/libstack-transform.a(userspace.o)
 .debug_info    0x0000000000007bcb      0x868 0x1 /usr/local/popcorn/x86_64/lib/libstack-transform.a(init.o)
 .debug_info    0x0000000000008433      0xeb9 0x1 /usr/local/popcorn/x86_64/lib/libstack-transform.a(rewrite.o)
 .debug_info    0x00000000000092ec      0xd3c 0x1 /usr/local/popcorn/x86_64/lib/libstack-transform.a(unwind.o)
 .debug_info    0x000000000000a028      0xc2a 0x1 /usr/local/popcorn/x86_64/lib/libstack-transform.a(util.o)
 .debug_info    0x000000000000ac52      0x1f1 0x1 /usr/local/popcorn/x86_64/lib/libstack-transform.a(properties.o)
 .debug_info    0x000000000000ae43      0x61c 0x1 /usr/local/popcorn/x86_64/lib/libstack-transform.a(regs.o)
 .debug_info    0x000000000000b45f      0x20c 0x1 /usr/local/popcorn/x86_64/lib/libstack-transform.a(properties.o)
 .debug_info    0x000000000000b66b      0x613 0x1 /usr/local/popcorn/x86_64/lib/libstack-transform.a(regs.o)
 .debug_info    0x000000000000bc7e      0x1f1 0x1 /usr/local/popcorn/x86_64/lib/libstack-transform.a(properties.o)
 .debug_info    0x000000000000be6f      0x74c 0x1 /usr/local/popcorn/x86_64/lib/libstack-transform.a(regs.o)
 .debug_info    0x000000000000c5bb      0xf03 0x1 /usr/local/popcorn/x86_64/lib/libstack-transform.a(data.o)
 .debug_info    0x000000000000d4be      0x1c4 0x1 /usr/local/popcorn/x86_64/lib/libc.a(arch_crash.o)
 .debug_info    0x000000000000d682       0xad 0x1 /usr/local/popcorn/x86_64/lib/libc.a(getenv.o)
 .debug_info    0x000000000000d72f      0x252 0x1 /usr/local/popcorn/x86_64/lib/libc.a(platform.o)
 .debug_info    0x000000000000d981       0x95 0x1 /usr/local/popcorn/x86_64/lib/libc.a(assert.o)
 .debug_info    0x000000000000da16      0x1b3 0x1 /usr/local/popcorn/x86_64/lib/libc.a(open.o)
 .debug_info    0x000000000000dbc9      0x138 0x1 /usr/local/popcorn/x86_64/lib/libc.a(calloc.o)
 .debug_info    0x000000000000dd01      0x12d 0x1 /usr/local/popcorn/x86_64/lib/libc.a(lite_malloc.o)
 .debug_info    0x000000000000de2e     0x14c0 0x1 /usr/local/popcorn/x86_64/lib/libc.a(malloc.o)
 .debug_info    0x000000000000f2ee     0x1b2b 0x1 /usr/local/popcorn/x86_64/lib/libc.a(popcorn_malloc.o)
 .debug_info    0x0000000000010e19      0x1c7 0x1 /usr/local/popcorn/x86_64/lib/libc.a(getrlimit.o)
 .debug_info    0x0000000000010fe0      0x204 0x1 /usr/local/popcorn/x86_64/lib/libc.a(syscall.o)
 .debug_info    0x00000000000111e4       0xf4 0x1 /usr/local/popcorn/x86_64/lib/libc.a(madvise.o)
 .debug_info    0x00000000000112d8      0x195 0x1 /usr/local/popcorn/x86_64/lib/libc.a(mmap.o)
 .debug_info    0x000000000001146d      0x1d9 0x1 /usr/local/popcorn/x86_64/lib/libc.a(mremap.o)
 .debug_info    0x0000000000011646       0xf3 0x1 /usr/local/popcorn/x86_64/lib/libc.a(munmap.o)
 .debug_info    0x0000000000011739      0x5dd 0x1 /usr/local/popcorn/x86_64/lib/libc.a(sigaction.o)
 .debug_info    0x0000000000011d16       0x9b 0x1 /usr/local/popcorn/x86_64/lib/libc.a(sigemptyset.o)
 .debug_info    0x0000000000011db1       0x4b 0x1 /usr/local/popcorn/x86_64/lib/libc.a(sigrtmin.o)
 .debug_info    0x0000000000011dfc       0xa8 0x1 /usr/local/popcorn/x86_64/lib/libc.a(restore.o)
 .debug_info    0x0000000000011ea4      0x36f 0x1 /usr/local/popcorn/x86_64/lib/libc.a(fclose.o)
 .debug_info    0x0000000000012213      0x364 0x1 /usr/local/popcorn/x86_64/lib/libc.a(fflush.o)
 .debug_info    0x0000000000012577      0x450 0x1 /usr/local/popcorn/x86_64/lib/libc.a(fopen.o)
 .debug_info    0x00000000000129c7      0x12b 0x1 /usr/local/popcorn/x86_64/lib/libc.a(fprintf.o)
 .debug_info    0x0000000000012af2      0x12b 0x1 /usr/local/popcorn/x86_64/lib/libc.a(fscanf.o)
 .debug_info    0x0000000000012c1d      0x3c3 0x1 /usr/local/popcorn/x86_64/lib/libc.a(fseek.o)
 .debug_info    0x0000000000012fe0      0x30c 0x1 /usr/local/popcorn/x86_64/lib/libc.a(getc.o)
 .debug_info    0x00000000000132ec       0xcd 0x1 /usr/local/popcorn/x86_64/lib/libc.a(getline.o)
 .debug_info    0x00000000000133b9      0x334 0x1 /usr/local/popcorn/x86_64/lib/libc.a(perror.o)
 .debug_info    0x00000000000136ed      0x139 0x1 /usr/local/popcorn/x86_64/lib/libc.a(snprintf.o)
 .debug_info    0x0000000000013826      0x110 0x1 /usr/local/popcorn/x86_64/lib/libc.a(sscanf.o)
 .debug_info    0x0000000000013936      0x336 0x1 /usr/local/popcorn/x86_64/lib/libc.a(stderr.o)
 .debug_info    0x0000000000013c6c      0x6bc 0x1 /usr/local/popcorn/x86_64/lib/libc.a(vfscanf.o)
 .debug_info    0x0000000000014328      0x45a 0x1 /usr/local/popcorn/x86_64/lib/libc.a(vsnprintf.o)
 .debug_info    0x0000000000014782      0x3bb 0x1 /usr/local/popcorn/x86_64/lib/libc.a(vsscanf.o)
 .debug_info    0x0000000000014b3d       0xef 0x1 /usr/local/popcorn/x86_64/lib/libc.a(bsearch.o)
 .debug_info    0x0000000000014c2c      0x61b 0x1 /usr/local/popcorn/x86_64/lib/libc.a(qsort.o)
 .debug_info    0x0000000000015247      0x5ba 0x1 /usr/local/popcorn/x86_64/lib/libc.a(strtol.o)
 .debug_info    0x0000000000015801       0x99 0x1 /usr/local/popcorn/x86_64/lib/libc.a(strchr.o)
 .debug_info    0x000000000001589a       0xcd 0x1 /usr/local/popcorn/x86_64/lib/libc.a(strchrnul.o)
 .debug_info    0x0000000000015967       0x87 0x1 /usr/local/popcorn/x86_64/lib/libc.a(strcmp.o)
 .debug_info    0x00000000000159ee       0xae 0x1 /usr/local/popcorn/x86_64/lib/libc.a(strlen.o)
 .debug_info    0x0000000000015a9c       0xcc 0x1 /usr/local/popcorn/x86_64/lib/libc.a(strncmp.o)
 .debug_info    0x0000000000015b68       0xa4 0x1 /usr/local/popcorn/x86_64/lib/libc.a(memmove.o)
 .debug_info    0x0000000000015c0c      0x12a 0x1 /usr/local/popcorn/x86_64/lib/libc.a(__syscall_cp.o)
 .debug_info    0x0000000000015d36      0x599 0x1 /usr/local/popcorn/x86_64/lib/libc.a(pthread_attr_get.o)
 .debug_info    0x00000000000162cf      0x431 0x1 /usr/local/popcorn/x86_64/lib/libc.a(pthread_getattr_np.o)
 .debug_info    0x0000000000016700      0x3e0 0x1 /usr/local/popcorn/x86_64/lib/libc.a(pthread_migrate.o)
 .debug_info    0x0000000000016ae0      0x3ac 0x1 /usr/local/popcorn/x86_64/lib/libc.a(pthread_self.o)
 .debug_info    0x0000000000016e8c       0x9a 0x1 /usr/local/popcorn/x86_64/lib/libc.a(close.o)
 .debug_info    0x0000000000016f26       0xaa 0x1 /usr/local/popcorn/x86_64/lib/libc.a(getpid.o)
 .debug_info    0x0000000000016fd0       0xf5 0x1 /usr/local/popcorn/x86_64/lib/libc.a(lseek.o)
 .debug_info    0x00000000000170c5       0x9e 0x1 /usr/local/popcorn/x86_64/lib/libc.a(read.o)
 .debug_info    0x0000000000017163       0x5c 0x1 /usr/local/popcorn/x86_64/lib/libc.a(abort.o)
 .debug_info    0x00000000000171bf      0x8ec 0x1 /usr/local/popcorn/x86_64/lib/libc.a(floatscan.o)
 .debug_info    0x0000000000017aab      0x3ce 0x1 /usr/local/popcorn/x86_64/lib/libc.a(intscan.o)
 .debug_info    0x0000000000017e79      0x340 0x1 /usr/local/popcorn/x86_64/lib/libc.a(shgetc.o)
 .debug_info    0x00000000000181b9       0xa5 0x1 /usr/local/popcorn/x86_64/lib/libc.a(syscall.o)
 .debug_info    0x000000000001825e      0x590 0x1 /usr/local/popcorn/x86_64/lib/libc.a(expand_heap.o)
 .debug_info    0x00000000000187ee       0xea 0x1 /usr/local/popcorn/x86_64/lib/libc.a(copysignl.o)
 .debug_info    0x00000000000188d8       0xc7 0x1 /usr/local/popcorn/x86_64/lib/libc.a(scalbn.o)
 .debug_info    0x000000000001899f       0xe6 0x1 /usr/local/popcorn/x86_64/lib/libc.a(scalbnl.o)
 .debug_info    0x0000000000018a85       0x9e 0x1 /usr/local/popcorn/x86_64/lib/libc.a(fabs.o)
 .debug_info    0x0000000000018b23       0xa0 0x1 /usr/local/popcorn/x86_64/lib/libc.a(fmodl.o)
 .debug_info    0x0000000000018bc3      0x4f8 0x1 /usr/local/popcorn/x86_64/lib/libc.a(mbrtowc.o)
 .debug_info    0x00000000000190bb       0x9f 0x1 /usr/local/popcorn/x86_64/lib/libc.a(mbsinit.o)
 .debug_info    0x000000000001915a      0x1c9 0x1 /usr/local/popcorn/x86_64/lib/libc.a(block.o)
 .debug_info    0x0000000000019323      0x168 0x1 /usr/local/popcorn/x86_64/lib/libc.a(raise.o)
 .debug_info    0x000000000001948b      0x4d7 0x1 /usr/local/popcorn/x86_64/lib/libc.a(__fdopen.o)
 .debug_info    0x0000000000019962       0x7b 0x1 /usr/local/popcorn/x86_64/lib/libc.a(__fmodeflags.o)
 .debug_info    0x00000000000199dd      0x3e4 0x1 /usr/local/popcorn/x86_64/lib/libc.a(__stdio_read.o)
 .debug_info    0x0000000000019dc1      0x34c 0x1 /usr/local/popcorn/x86_64/lib/libc.a(__string_read.o)
 .debug_info    0x000000000001a10d      0x310 0x1 /usr/local/popcorn/x86_64/lib/libc.a(__uflow.o)
 .debug_info    0x000000000001a41d      0x310 0x1 /usr/local/popcorn/x86_64/lib/libc.a(fputc.o)
 .debug_info    0x000000000001a72d      0x3c9 0x1 /usr/local/popcorn/x86_64/lib/libc.a(getdelim.o)
 .debug_info    0x000000000001aaf6      0x315 0x1 /usr/local/popcorn/x86_64/lib/libc.a(ofl_add.o)
 .debug_info    0x000000000001ae0b       0x5e 0x1 /usr/local/popcorn/x86_64/lib/libc.a(internal.o)
 .debug_info    0x000000000001ae69      0x31f 0x1 /usr/local/popcorn/x86_64/lib/libc.a(__overflow.o)
 .debug_info    0x000000000001b188      0x316 0x1 /usr/local/popcorn/x86_64/lib/libc.a(__toread.o)

.debug_ranges   0x0000000000000000     0x4b90
 .debug_ranges  0x0000000000000000        0x0 0x1 popcorn-hello_x86_64.o
 .debug_ranges  0x0000000000000000        0x0 0x1 /usr/local/popcorn/x86_64/lib/crt1.o
 .debug_ranges  0x0000000000000000       0x60 0x1 /usr/local/popcorn/x86_64/lib/libc.a(__libc_start_main.o)
 .debug_ranges  0x0000000000000060       0x40 0x1 /usr/local/popcorn/x86_64/lib/libc.a(exit.o)
 .debug_ranges  0x00000000000000a0        0x0 0x1 /usr/local/popcorn/x86_64/lib/libc.a(libc.o)
 .debug_ranges  0x00000000000000a0        0x0 0x1 /usr/local/popcorn/x86_64/lib/libc.a(printf.o)
 .debug_ranges  0x00000000000000a0        0x0 0x1 /usr/local/popcorn/x86_64/lib/libc.a(stdout.o)
 .debug_ranges  0x00000000000000a0      0xb90 0x1 /usr/local/popcorn/x86_64/lib/libc.a(vfprintf.o)
 .debug_ranges  0x0000000000000c30        0x0 0x1 /usr/local/popcorn/x86_64/lib/libc.a(strnlen.o)
 .debug_ranges  0x0000000000000c30        0x0 0x1 /usr/local/popcorn/x86_64/lib/libc.a(__environ.o)
 .debug_ranges  0x0000000000000c30       0x40 0x1 /usr/local/popcorn/x86_64/lib/libc.a(__init_tls.o)
 .debug_ranges  0x0000000000000c70        0x0 0x1 /usr/local/popcorn/x86_64/lib/libc.a(__errno_location.o)
 .debug_ranges  0x0000000000000c70       0x30 0x1 /usr/local/popcorn/x86_64/lib/libc.a(strerror.o)
 .debug_ranges  0x0000000000000ca0        0x0 0x1 /usr/local/popcorn/x86_64/lib/libc.a(_Exit.o)
 .debug_ranges  0x0000000000000ca0       0x40 0x1 /usr/local/popcorn/x86_64/lib/libc.a(__lctrans.o)
 .debug_ranges  0x0000000000000ce0        0x0 0x1 /usr/local/popcorn/x86_64/lib/libc.a(__fpclassifyl.o)
 .debug_ranges  0x0000000000000ce0        0x0 0x1 /usr/local/popcorn/x86_64/lib/libc.a(__signbitl.o)
 .debug_ranges  0x0000000000000ce0        0x0 0x1 /usr/local/popcorn/x86_64/lib/libc.a(frexpl.o)
 .debug_ranges  0x0000000000000ce0        0x0 0x1 /usr/local/popcorn/x86_64/lib/libc.a(wctomb.o)
 .debug_ranges  0x0000000000000ce0       0x60 0x1 /usr/local/popcorn/x86_64/lib/libc.a(__lockfile.o)
 .debug_ranges  0x0000000000000d40       0x30 0x1 /usr/local/popcorn/x86_64/lib/libc.a(__stdio_close.o)
 .debug_ranges  0x0000000000000d70        0x0 0x1 /usr/local/popcorn/x86_64/lib/libc.a(__stdio_seek.o)
 .debug_ranges  0x0000000000000d70        0x0 0x1 /usr/local/popcorn/x86_64/lib/libc.a(__stdout_write.o)
 .debug_ranges  0x0000000000000d70       0x30 0x1 /usr/local/popcorn/x86_64/lib/libc.a(fwrite.o)
 .debug_ranges  0x0000000000000da0        0x0 0x1 /usr/local/popcorn/x86_64/lib/libc.a(memchr.o)
 .debug_ranges  0x0000000000000da0       0x30 0x1 /usr/local/popcorn/x86_64/lib/libc.a(__wait.o)
 .debug_ranges  0x0000000000000dd0        0x0 0x1 /usr/local/popcorn/x86_64/lib/libc.a(syscall_ret.o)
 .debug_ranges  0x0000000000000dd0        0x0 0x1 /usr/local/popcorn/x86_64/lib/libc.a(wcrtomb.o)
 .debug_ranges  0x0000000000000dd0       0x30 0x1 /usr/local/popcorn/x86_64/lib/libc.a(__stdio_write.o)
 .debug_ranges  0x0000000000000e00       0x30 0x1 /usr/local/popcorn/x86_64/lib/libc.a(__towrite.o)
 .debug_ranges  0x0000000000000e30       0x30 0x1 /usr/local/popcorn/x86_64/lib/libc.a(__stdio_exit.o)
 .debug_ranges  0x0000000000000e60       0x30 0x1 /usr/local/popcorn/x86_64/lib/libc.a(ofl.o)
 .debug_ranges  0x0000000000000e90       0x70 0x1 /usr/local/popcorn/x86_64/lib/libc.a(__lock.o)
 .debug_ranges  0x0000000000000f00      0x150 0x1 /usr/local/popcorn/x86_64/lib/libmigrate.a(migrate.o)
 .debug_ranges  0x0000000000001050       0x40 0x1 /usr/local/popcorn/x86_64/lib/libmigrate.a(trigger.o)
 .debug_ranges  0x0000000000001090       0x70 0x1 /usr/local/popcorn/x86_64/lib/libmigrate.a(mapping.o)
 .debug_ranges  0x0000000000001100       0xe0 0x1 /usr/local/popcorn/x86_64/lib/libstack-transform.a(userspace.o)
 .debug_ranges  0x00000000000011e0       0x50 0x1 /usr/local/popcorn/x86_64/lib/libstack-transform.a(init.o)
 .debug_ranges  0x0000000000001230      0x1b0 0x1 /usr/local/popcorn/x86_64/lib/libstack-transform.a(rewrite.o)
 .debug_ranges  0x00000000000013e0      0x190 0x1 /usr/local/popcorn/x86_64/lib/libstack-transform.a(unwind.o)
 .debug_ranges  0x0000000000001570      0x100 0x1 /usr/local/popcorn/x86_64/lib/libstack-transform.a(util.o)
 .debug_ranges  0x0000000000001670       0x40 0x1 /usr/local/popcorn/x86_64/lib/libstack-transform.a(properties.o)
 .debug_ranges  0x00000000000016b0      0x120 0x1 /usr/local/popcorn/x86_64/lib/libstack-transform.a(regs.o)
 .debug_ranges  0x00000000000017d0       0x40 0x1 /usr/local/popcorn/x86_64/lib/libstack-transform.a(properties.o)
 .debug_ranges  0x0000000000001810      0x120 0x1 /usr/local/popcorn/x86_64/lib/libstack-transform.a(regs.o)
 .debug_ranges  0x0000000000001930       0x40 0x1 /usr/local/popcorn/x86_64/lib/libstack-transform.a(properties.o)
 .debug_ranges  0x0000000000001970      0x120 0x1 /usr/local/popcorn/x86_64/lib/libstack-transform.a(regs.o)
 .debug_ranges  0x0000000000001a90      0x400 0x1 /usr/local/popcorn/x86_64/lib/libstack-transform.a(data.o)
 .debug_ranges  0x0000000000001e90       0x50 0x1 /usr/local/popcorn/x86_64/lib/libc.a(arch_crash.o)
 .debug_ranges  0x0000000000001ee0        0x0 0x1 /usr/local/popcorn/x86_64/lib/libc.a(getenv.o)
 .debug_ranges  0x0000000000001ee0       0x40 0x1 /usr/local/popcorn/x86_64/lib/libc.a(platform.o)
 .debug_ranges  0x0000000000001f20        0x0 0x1 /usr/local/popcorn/x86_64/lib/libc.a(assert.o)
 .debug_ranges  0x0000000000001f20        0x0 0x1 /usr/local/popcorn/x86_64/lib/libc.a(open.o)
 .debug_ranges  0x0000000000001f20       0x40 0x1 /usr/local/popcorn/x86_64/lib/libc.a(calloc.o)
 .debug_ranges  0x0000000000001f60       0x40 0x1 /usr/local/popcorn/x86_64/lib/libc.a(lite_malloc.o)
 .debug_ranges  0x0000000000001fa0      0xc50 0x1 /usr/local/popcorn/x86_64/lib/libc.a(malloc.o)
 .debug_ranges  0x0000000000002bf0     0x12d0 0x1 /usr/local/popcorn/x86_64/lib/libc.a(popcorn_malloc.o)
 .debug_ranges  0x0000000000003ec0        0x0 0x1 /usr/local/popcorn/x86_64/lib/libc.a(getrlimit.o)
 .debug_ranges  0x0000000000003ec0        0x0 0x1 /usr/local/popcorn/x86_64/lib/libc.a(syscall.o)
 .debug_ranges  0x0000000000003ec0        0x0 0x1 /usr/local/popcorn/x86_64/lib/libc.a(madvise.o)
 .debug_ranges  0x0000000000003ec0       0x30 0x1 /usr/local/popcorn/x86_64/lib/libc.a(mmap.o)
 .debug_ranges  0x0000000000003ef0       0x30 0x1 /usr/local/popcorn/x86_64/lib/libc.a(mremap.o)
 .debug_ranges  0x0000000000003f20       0x30 0x1 /usr/local/popcorn/x86_64/lib/libc.a(munmap.o)
 .debug_ranges  0x0000000000003f50       0x40 0x1 /usr/local/popcorn/x86_64/lib/libc.a(sigaction.o)
 .debug_ranges  0x0000000000003f90        0x0 0x1 /usr/local/popcorn/x86_64/lib/libc.a(sigemptyset.o)
 .debug_ranges  0x0000000000003f90        0x0 0x1 /usr/local/popcorn/x86_64/lib/libc.a(sigrtmin.o)
 .debug_ranges  0x0000000000003f90       0x30 0x1 /usr/local/popcorn/x86_64/lib/libc.a(fclose.o)
 .debug_ranges  0x0000000000003fc0        0x0 0x1 /usr/local/popcorn/x86_64/lib/libc.a(fflush.o)
 .debug_ranges  0x0000000000003fc0        0x0 0x1 /usr/local/popcorn/x86_64/lib/libc.a(fopen.o)
 .debug_ranges  0x0000000000003fc0        0x0 0x1 /usr/local/popcorn/x86_64/lib/libc.a(fprintf.o)
 .debug_ranges  0x0000000000003fc0        0x0 0x1 /usr/local/popcorn/x86_64/lib/libc.a(fscanf.o)
 .debug_ranges  0x0000000000003fc0       0x40 0x1 /usr/local/popcorn/x86_64/lib/libc.a(fseek.o)
 .debug_ranges  0x0000000000004000        0x0 0x1 /usr/local/popcorn/x86_64/lib/libc.a(getc.o)
 .debug_ranges  0x0000000000004000        0x0 0x1 /usr/local/popcorn/x86_64/lib/libc.a(getline.o)
 .debug_ranges  0x0000000000004000        0x0 0x1 /usr/local/popcorn/x86_64/lib/libc.a(perror.o)
 .debug_ranges  0x0000000000004000        0x0 0x1 /usr/local/popcorn/x86_64/lib/libc.a(snprintf.o)
 .debug_ranges  0x0000000000004000        0x0 0x1 /usr/local/popcorn/x86_64/lib/libc.a(sscanf.o)
 .debug_ranges  0x0000000000004000        0x0 0x1 /usr/local/popcorn/x86_64/lib/libc.a(stderr.o)
 .debug_ranges  0x0000000000004000       0x90 0x1 /usr/local/popcorn/x86_64/lib/libc.a(vfscanf.o)
 .debug_ranges  0x0000000000004090       0x30 0x1 /usr/local/popcorn/x86_64/lib/libc.a(vsnprintf.o)
 .debug_ranges  0x00000000000040c0       0x30 0x1 /usr/local/popcorn/x86_64/lib/libc.a(vsscanf.o)
 .debug_ranges  0x00000000000040f0        0x0 0x1 /usr/local/popcorn/x86_64/lib/libc.a(bsearch.o)
 .debug_ranges  0x00000000000040f0      0x1e0 0x1 /usr/local/popcorn/x86_64/lib/libc.a(qsort.o)
 .debug_ranges  0x00000000000042d0       0x80 0x1 /usr/local/popcorn/x86_64/lib/libc.a(strtol.o)
 .debug_ranges  0x0000000000004350        0x0 0x1 /usr/local/popcorn/x86_64/lib/libc.a(strchr.o)
 .debug_ranges  0x0000000000004350        0x0 0x1 /usr/local/popcorn/x86_64/lib/libc.a(strchrnul.o)
 .debug_ranges  0x0000000000004350        0x0 0x1 /usr/local/popcorn/x86_64/lib/libc.a(strcmp.o)
 .debug_ranges  0x0000000000004350        0x0 0x1 /usr/local/popcorn/x86_64/lib/libc.a(strlen.o)
 .debug_ranges  0x0000000000004350        0x0 0x1 /usr/local/popcorn/x86_64/lib/libc.a(strncmp.o)
 .debug_ranges  0x0000000000004350       0x30 0x1 /usr/local/popcorn/x86_64/lib/libc.a(__syscall_cp.o)
 .debug_ranges  0x0000000000004380      0x110 0x1 /usr/local/popcorn/x86_64/lib/libc.a(pthread_attr_get.o)
 .debug_ranges  0x0000000000004490        0x0 0x1 /usr/local/popcorn/x86_64/lib/libc.a(pthread_getattr_np.o)
 .debug_ranges  0x0000000000004490       0x30 0x1 /usr/local/popcorn/x86_64/lib/libc.a(pthread_migrate.o)
 .debug_ranges  0x00000000000044c0        0x0 0x1 /usr/local/popcorn/x86_64/lib/libc.a(pthread_self.o)
 .debug_ranges  0x00000000000044c0       0x30 0x1 /usr/local/popcorn/x86_64/lib/libc.a(close.o)
 .debug_ranges  0x00000000000044f0        0x0 0x1 /usr/local/popcorn/x86_64/lib/libc.a(getpid.o)
 .debug_ranges  0x00000000000044f0        0x0 0x1 /usr/local/popcorn/x86_64/lib/libc.a(lseek.o)
 .debug_ranges  0x00000000000044f0        0x0 0x1 /usr/local/popcorn/x86_64/lib/libc.a(read.o)
 .debug_ranges  0x00000000000044f0        0x0 0x1 /usr/local/popcorn/x86_64/lib/libc.a(abort.o)
 .debug_ranges  0x00000000000044f0      0x540 0x1 /usr/local/popcorn/x86_64/lib/libc.a(floatscan.o)
 .debug_ranges  0x0000000000004a30        0x0 0x1 /usr/local/popcorn/x86_64/lib/libc.a(intscan.o)
 .debug_ranges  0x0000000000004a30       0x30 0x1 /usr/local/popcorn/x86_64/lib/libc.a(shgetc.o)
 .debug_ranges  0x0000000000004a60       0xc0 0x1 /usr/local/popcorn/x86_64/lib/libc.a(expand_heap.o)
 .debug_ranges  0x0000000000004b20        0x0 0x1 /usr/local/popcorn/x86_64/lib/libc.a(copysignl.o)
 .debug_ranges  0x0000000000004b20        0x0 0x1 /usr/local/popcorn/x86_64/lib/libc.a(scalbn.o)
 .debug_ranges  0x0000000000004b20        0x0 0x1 /usr/local/popcorn/x86_64/lib/libc.a(scalbnl.o)
 .debug_ranges  0x0000000000004b20        0x0 0x1 /usr/local/popcorn/x86_64/lib/libc.a(mbrtowc.o)
 .debug_ranges  0x0000000000004b20        0x0 0x1 /usr/local/popcorn/x86_64/lib/libc.a(mbsinit.o)
 .debug_ranges  0x0000000000004b20       0x40 0x1 /usr/local/popcorn/x86_64/lib/libc.a(block.o)
 .debug_ranges  0x0000000000004b60        0x0 0x1 /usr/local/popcorn/x86_64/lib/libc.a(raise.o)
 .debug_ranges  0x0000000000004b60        0x0 0x1 /usr/local/popcorn/x86_64/lib/libc.a(__fdopen.o)
 .debug_ranges  0x0000000000004b60        0x0 0x1 /usr/local/popcorn/x86_64/lib/libc.a(__fmodeflags.o)
 .debug_ranges  0x0000000000004b60        0x0 0x1 /usr/local/popcorn/x86_64/lib/libc.a(__stdio_read.o)
 .debug_ranges  0x0000000000004b60        0x0 0x1 /usr/local/popcorn/x86_64/lib/libc.a(__string_read.o)
 .debug_ranges  0x0000000000004b60        0x0 0x1 /usr/local/popcorn/x86_64/lib/libc.a(__uflow.o)
 .debug_ranges  0x0000000000004b60        0x0 0x1 /usr/local/popcorn/x86_64/lib/libc.a(fputc.o)
 .debug_ranges  0x0000000000004b60        0x0 0x1 /usr/local/popcorn/x86_64/lib/libc.a(getdelim.o)
 .debug_ranges  0x0000000000004b60        0x0 0x1 /usr/local/popcorn/x86_64/lib/libc.a(ofl_add.o)
 .debug_ranges  0x0000000000004b60        0x0 0x1 /usr/local/popcorn/x86_64/lib/libc.a(internal.o)
 .debug_ranges  0x0000000000004b60        0x0 0x1 /usr/local/popcorn/x86_64/lib/libc.a(__overflow.o)
 .debug_ranges  0x0000000000004b60       0x30 0x1 /usr/local/popcorn/x86_64/lib/libc.a(__toread.o)

.debug_pubnames
                0x0000000000000000     0x2b8b
 .debug_pubnames
                0x0000000000000000       0x1b 0x1 popcorn-hello_x86_64.o
 .debug_pubnames
                0x000000000000001b       0x1f 0x1 /usr/local/popcorn/x86_64/lib/crt1.o
 .debug_pubnames
                0x000000000000003a       0xa4 0x1 /usr/local/popcorn/x86_64/lib/libc.a(__libc_start_main.o)
 .debug_pubnames
                0x00000000000000de       0x38 0x1 /usr/local/popcorn/x86_64/lib/libc.a(exit.o)
 .debug_pubnames
                0x0000000000000116       0x5a 0x1 /usr/local/popcorn/x86_64/lib/libc.a(libc.o)
 .debug_pubnames
                0x0000000000000170       0x1d 0x1 /usr/local/popcorn/x86_64/lib/libc.a(printf.o)
 .debug_pubnames
                0x000000000000018d       0x3d 0x1 /usr/local/popcorn/x86_64/lib/libc.a(stdout.o)
 .debug_pubnames
                0x00000000000001ca       0xb9 0x1 /usr/local/popcorn/x86_64/lib/libc.a(vfprintf.o)
 .debug_pubnames
                0x0000000000000283       0x1e 0x1 /usr/local/popcorn/x86_64/lib/libc.a(strnlen.o)
 .debug_pubnames
                0x00000000000002a1       0x20 0x1 /usr/local/popcorn/x86_64/lib/libc.a(__environ.o)
 .debug_pubnames
                0x00000000000002c1       0x8a 0x1 /usr/local/popcorn/x86_64/lib/libc.a(__init_tls.o)
 .debug_pubnames
                0x000000000000034b       0x3a 0x1 /usr/local/popcorn/x86_64/lib/libc.a(__errno_location.o)
 .debug_pubnames
                0x0000000000000385       0x58 0x1 /usr/local/popcorn/x86_64/lib/libc.a(strerror.o)
 .debug_pubnames
                0x00000000000003dd       0x2b 0x1 /usr/local/popcorn/x86_64/lib/libc.a(_Exit.o)
 .debug_pubnames
                0x0000000000000408       0x4f 0x1 /usr/local/popcorn/x86_64/lib/libc.a(__lctrans.o)
 .debug_pubnames
                0x0000000000000457       0x24 0x1 /usr/local/popcorn/x86_64/lib/libc.a(__fpclassifyl.o)
 .debug_pubnames
                0x000000000000047b       0x21 0x1 /usr/local/popcorn/x86_64/lib/libc.a(__signbitl.o)
 .debug_pubnames
                0x000000000000049c       0x1d 0x1 /usr/local/popcorn/x86_64/lib/libc.a(frexpl.o)
 .debug_pubnames
                0x00000000000004b9       0x1d 0x1 /usr/local/popcorn/x86_64/lib/libc.a(wctomb.o)
 .debug_pubnames
                0x00000000000004d6       0x75 0x1 /usr/local/popcorn/x86_64/lib/libc.a(__lockfile.o)
 .debug_pubnames
                0x000000000000054b       0x3d 0x1 /usr/local/popcorn/x86_64/lib/libc.a(__stdio_close.o)
 .debug_pubnames
                0x0000000000000588       0x32 0x1 /usr/local/popcorn/x86_64/lib/libc.a(__stdio_seek.o)
 .debug_pubnames
                0x00000000000005ba       0x34 0x1 /usr/local/popcorn/x86_64/lib/libc.a(__stdout_write.o)
 .debug_pubnames
                0x00000000000005ee       0x2b 0x1 /usr/local/popcorn/x86_64/lib/libc.a(fwrite.o)
 .debug_pubnames
                0x0000000000000619       0x1d 0x1 /usr/local/popcorn/x86_64/lib/libc.a(memchr.o)
 .debug_pubnames
                0x0000000000000636       0x4b 0x1 /usr/local/popcorn/x86_64/lib/libc.a(__wait.o)
 .debug_pubnames
                0x0000000000000681       0x24 0x1 /usr/local/popcorn/x86_64/lib/libc.a(syscall_ret.o)
 .debug_pubnames
                0x00000000000006a5       0x31 0x1 /usr/local/popcorn/x86_64/lib/libc.a(wcrtomb.o)
 .debug_pubnames
                0x00000000000006d6       0x33 0x1 /usr/local/popcorn/x86_64/lib/libc.a(__stdio_write.o)
 .debug_pubnames
                0x0000000000000709       0x3f 0x1 /usr/local/popcorn/x86_64/lib/libc.a(__towrite.o)
 .debug_pubnames
                0x0000000000000748       0x41 0x1 /usr/local/popcorn/x86_64/lib/libc.a(__stdio_exit.o)
 .debug_pubnames
                0x0000000000000789       0x4c 0x1 /usr/local/popcorn/x86_64/lib/libc.a(ofl.o)
 .debug_pubnames
                0x00000000000007d5       0x5b 0x1 /usr/local/popcorn/x86_64/lib/libc.a(__lock.o)
 .debug_pubnames
                0x0000000000000830      0x10d 0x1 /usr/local/popcorn/x86_64/lib/libmigrate.a(migrate.o)
 .debug_pubnames
                0x000000000000093d       0x77 0x1 /usr/local/popcorn/x86_64/lib/libmigrate.a(trigger.o)
 .debug_pubnames
                0x00000000000009b4       0xb4 0x1 /usr/local/popcorn/x86_64/lib/libmigrate.a(mapping.o)
 .debug_pubnames
                0x0000000000000a68      0x179 0x1 /usr/local/popcorn/x86_64/lib/libstack-transform.a(userspace.o)
 .debug_pubnames
                0x0000000000000be1       0x49 0x1 /usr/local/popcorn/x86_64/lib/libstack-transform.a(init.o)
 .debug_pubnames
                0x0000000000000c2a      0x183 0x1 /usr/local/popcorn/x86_64/lib/libstack-transform.a(rewrite.o)
 .debug_pubnames
                0x0000000000000dad      0x129 0x1 /usr/local/popcorn/x86_64/lib/libstack-transform.a(unwind.o)
 .debug_pubnames
                0x0000000000000ed6       0xda 0x1 /usr/local/popcorn/x86_64/lib/libstack-transform.a(util.o)
 .debug_pubnames
                0x0000000000000fb0       0xad 0x1 /usr/local/popcorn/x86_64/lib/libstack-transform.a(properties.o)
 .debug_pubnames
                0x000000000000105d      0x189 0x1 /usr/local/popcorn/x86_64/lib/libstack-transform.a(regs.o)
 .debug_pubnames
                0x00000000000011e6       0xb9 0x1 /usr/local/popcorn/x86_64/lib/libstack-transform.a(properties.o)
 .debug_pubnames
                0x000000000000129f      0x1ad 0x1 /usr/local/popcorn/x86_64/lib/libstack-transform.a(regs.o)
 .debug_pubnames
                0x000000000000144c       0xa7 0x1 /usr/local/popcorn/x86_64/lib/libstack-transform.a(properties.o)
 .debug_pubnames
                0x00000000000014f3      0x177 0x1 /usr/local/popcorn/x86_64/lib/libstack-transform.a(regs.o)
 .debug_pubnames
                0x000000000000166a      0x113 0x1 /usr/local/popcorn/x86_64/lib/libstack-transform.a(data.o)
 .debug_pubnames
                0x000000000000177d       0x5b 0x1 /usr/local/popcorn/x86_64/lib/libc.a(arch_crash.o)
 .debug_pubnames
                0x00000000000017d8       0x1d 0x1 /usr/local/popcorn/x86_64/lib/libc.a(getenv.o)
 .debug_pubnames
                0x00000000000017f5       0x75 0x1 /usr/local/popcorn/x86_64/lib/libc.a(platform.o)
 .debug_pubnames
                0x000000000000186a       0x24 0x1 /usr/local/popcorn/x86_64/lib/libc.a(assert.o)
 .debug_pubnames
                0x000000000000188e       0x2a 0x1 /usr/local/popcorn/x86_64/lib/libc.a(open.o)
 .debug_pubnames
                0x00000000000018b8       0x47 0x1 /usr/local/popcorn/x86_64/lib/libc.a(calloc.o)
 .debug_pubnames
                0x00000000000018ff       0x3f 0x1 /usr/local/popcorn/x86_64/lib/libc.a(lite_malloc.o)
 .debug_pubnames
                0x000000000000193e      0x197 0x1 /usr/local/popcorn/x86_64/lib/libc.a(malloc.o)
 .debug_pubnames
                0x0000000000001ad5      0x1e6 0x1 /usr/local/popcorn/x86_64/lib/libc.a(popcorn_malloc.o)
 .debug_pubnames
                0x0000000000001cbb       0x3e 0x1 /usr/local/popcorn/x86_64/lib/libc.a(getrlimit.o)
 .debug_pubnames
                0x0000000000001cf9       0x2d 0x1 /usr/local/popcorn/x86_64/lib/libc.a(syscall.o)
 .debug_pubnames
                0x0000000000001d26       0x2f 0x1 /usr/local/popcorn/x86_64/lib/libc.a(madvise.o)
 .debug_pubnames
                0x0000000000001d55       0x36 0x1 /usr/local/popcorn/x86_64/lib/libc.a(mmap.o)
 .debug_pubnames
                0x0000000000001d8b       0x38 0x1 /usr/local/popcorn/x86_64/lib/libc.a(mremap.o)
 .debug_pubnames
                0x0000000000001dc3       0x38 0x1 /usr/local/popcorn/x86_64/lib/libc.a(munmap.o)
 .debug_pubnames
                0x0000000000001dfb       0x93 0x1 /usr/local/popcorn/x86_64/lib/libc.a(sigaction.o)
 .debug_pubnames
                0x0000000000001e8e       0x22 0x1 /usr/local/popcorn/x86_64/lib/libc.a(sigemptyset.o)
 .debug_pubnames
                0x0000000000001eb0       0x2e 0x1 /usr/local/popcorn/x86_64/lib/libc.a(sigrtmin.o)
 .debug_pubnames
                0x0000000000001ede       0x27 0x1 /usr/local/popcorn/x86_64/lib/libc.a(fclose.o)
 .debug_pubnames
                0x0000000000001f05       0x27 0x1 /usr/local/popcorn/x86_64/lib/libc.a(fflush.o)
 .debug_pubnames
                0x0000000000001f2c       0x3a 0x1 /usr/local/popcorn/x86_64/lib/libc.a(fopen.o)
 .debug_pubnames
                0x0000000000001f66       0x1e 0x1 /usr/local/popcorn/x86_64/lib/libc.a(fprintf.o)
 .debug_pubnames
                0x0000000000001f84       0x1d 0x1 /usr/local/popcorn/x86_64/lib/libc.a(fscanf.o)
 .debug_pubnames
                0x0000000000001fa1       0x3f 0x1 /usr/local/popcorn/x86_64/lib/libc.a(fseek.o)
 .debug_pubnames
                0x0000000000001fe0       0x1b 0x1 /usr/local/popcorn/x86_64/lib/libc.a(getc.o)
 .debug_pubnames
                0x0000000000001ffb       0x1e 0x1 /usr/local/popcorn/x86_64/lib/libc.a(getline.o)
 .debug_pubnames
                0x0000000000002019       0x1d 0x1 /usr/local/popcorn/x86_64/lib/libc.a(perror.o)
 .debug_pubnames
                0x0000000000002036       0x1f 0x1 /usr/local/popcorn/x86_64/lib/libc.a(snprintf.o)
 .debug_pubnames
                0x0000000000002055       0x1d 0x1 /usr/local/popcorn/x86_64/lib/libc.a(sscanf.o)
 .debug_pubnames
                0x0000000000002072       0x3d 0x1 /usr/local/popcorn/x86_64/lib/libc.a(stderr.o)
 .debug_pubnames
                0x00000000000020af       0x44 0x1 /usr/local/popcorn/x86_64/lib/libc.a(vfscanf.o)
 .debug_pubnames
                0x00000000000020f3       0x2d 0x1 /usr/local/popcorn/x86_64/lib/libc.a(vsnprintf.o)
 .debug_pubnames
                0x0000000000002120       0x2a 0x1 /usr/local/popcorn/x86_64/lib/libc.a(vsscanf.o)
 .debug_pubnames
                0x000000000000214a       0x1e 0x1 /usr/local/popcorn/x86_64/lib/libc.a(bsearch.o)
 .debug_pubnames
                0x0000000000002168       0x7c 0x1 /usr/local/popcorn/x86_64/lib/libc.a(qsort.o)
 .debug_pubnames
                0x00000000000021e4       0x69 0x1 /usr/local/popcorn/x86_64/lib/libc.a(strtol.o)
 .debug_pubnames
                0x000000000000224d       0x1d 0x1 /usr/local/popcorn/x86_64/lib/libc.a(strchr.o)
 .debug_pubnames
                0x000000000000226a       0x22 0x1 /usr/local/popcorn/x86_64/lib/libc.a(strchrnul.o)
 .debug_pubnames
                0x000000000000228c       0x1d 0x1 /usr/local/popcorn/x86_64/lib/libc.a(strcmp.o)
 .debug_pubnames
                0x00000000000022a9       0x1d 0x1 /usr/local/popcorn/x86_64/lib/libc.a(strlen.o)
 .debug_pubnames
                0x00000000000022c6       0x1e 0x1 /usr/local/popcorn/x86_64/lib/libc.a(strncmp.o)
 .debug_pubnames
                0x00000000000022e4       0x2c 0x1 /usr/local/popcorn/x86_64/lib/libc.a(__syscall_cp.o)
 .debug_pubnames
                0x0000000000002310      0x206 0x1 /usr/local/popcorn/x86_64/lib/libc.a(pthread_attr_get.o)
 .debug_pubnames
                0x0000000000002516       0x29 0x1 /usr/local/popcorn/x86_64/lib/libc.a(pthread_getattr_np.o)
 .debug_pubnames
                0x000000000000253f       0x5f 0x1 /usr/local/popcorn/x86_64/lib/libc.a(pthread_migrate.o)
 .debug_pubnames
                0x000000000000259e       0x41 0x1 /usr/local/popcorn/x86_64/lib/libc.a(pthread_self.o)
 .debug_pubnames
                0x00000000000025df       0x26 0x1 /usr/local/popcorn/x86_64/lib/libc.a(close.o)
 .debug_pubnames
                0x0000000000002605       0x2c 0x1 /usr/local/popcorn/x86_64/lib/libc.a(getpid.o)
 .debug_pubnames
                0x0000000000002631       0x2b 0x1 /usr/local/popcorn/x86_64/lib/libc.a(lseek.o)
 .debug_pubnames
                0x000000000000265c       0x1b 0x1 /usr/local/popcorn/x86_64/lib/libc.a(read.o)
 .debug_pubnames
                0x0000000000002677       0x28 0x1 /usr/local/popcorn/x86_64/lib/libc.a(abort.o)
 .debug_pubnames
                0x000000000000269f       0x66 0x1 /usr/local/popcorn/x86_64/lib/libc.a(floatscan.o)
 .debug_pubnames
                0x0000000000002705       0x38 0x1 /usr/local/popcorn/x86_64/lib/libc.a(intscan.o)
 .debug_pubnames
                0x000000000000273d       0x2b 0x1 /usr/local/popcorn/x86_64/lib/libc.a(shgetc.o)
 .debug_pubnames
                0x0000000000002768      0x109 0x1 /usr/local/popcorn/x86_64/lib/libc.a(expand_heap.o)
 .debug_pubnames
                0x0000000000002871       0x20 0x1 /usr/local/popcorn/x86_64/lib/libc.a(copysignl.o)
 .debug_pubnames
                0x0000000000002891       0x1d 0x1 /usr/local/popcorn/x86_64/lib/libc.a(scalbn.o)
 .debug_pubnames
                0x00000000000028ae       0x1e 0x1 /usr/local/popcorn/x86_64/lib/libc.a(scalbnl.o)
 .debug_pubnames
                0x00000000000028cc       0x44 0x1 /usr/local/popcorn/x86_64/lib/libc.a(mbrtowc.o)
 .debug_pubnames
                0x0000000000002910       0x1e 0x1 /usr/local/popcorn/x86_64/lib/libc.a(mbsinit.o)
 .debug_pubnames
                0x000000000000292e       0x78 0x1 /usr/local/popcorn/x86_64/lib/libc.a(block.o)
 .debug_pubnames
                0x00000000000029a6       0x3a 0x1 /usr/local/popcorn/x86_64/lib/libc.a(raise.o)
 .debug_pubnames
                0x00000000000029e0       0x3d 0x1 /usr/local/popcorn/x86_64/lib/libc.a(__fdopen.o)
 .debug_pubnames
                0x0000000000002a1d       0x23 0x1 /usr/local/popcorn/x86_64/lib/libc.a(__fmodeflags.o)
 .debug_pubnames
                0x0000000000002a40       0x32 0x1 /usr/local/popcorn/x86_64/lib/libc.a(__stdio_read.o)
 .debug_pubnames
                0x0000000000002a72       0x24 0x1 /usr/local/popcorn/x86_64/lib/libc.a(__string_read.o)
 .debug_pubnames
                0x0000000000002a96       0x1e 0x1 /usr/local/popcorn/x86_64/lib/libc.a(__uflow.o)
 .debug_pubnames
                0x0000000000002ab4       0x1c 0x1 /usr/local/popcorn/x86_64/lib/libc.a(fputc.o)
 .debug_pubnames
                0x0000000000002ad0       0x1f 0x1 /usr/local/popcorn/x86_64/lib/libc.a(getdelim.o)
 .debug_pubnames
                0x0000000000002aef       0x20 0x1 /usr/local/popcorn/x86_64/lib/libc.a(ofl_add.o)
 .debug_pubnames
                0x0000000000002b0f       0x1e 0x1 /usr/local/popcorn/x86_64/lib/libc.a(internal.o)
 .debug_pubnames
                0x0000000000002b2d       0x21 0x1 /usr/local/popcorn/x86_64/lib/libc.a(__overflow.o)
 .debug_pubnames
                0x0000000000002b4e       0x3d 0x1 /usr/local/popcorn/x86_64/lib/libc.a(__toread.o)

.debug_pubtypes
                0x0000000000000000     0x4b82
 .debug_pubtypes
                0x0000000000000000       0x23 0x1 popcorn-hello_x86_64.o
 .debug_pubtypes
                0x0000000000000023       0x30 0x1 /usr/local/popcorn/x86_64/lib/crt1.o
 .debug_pubtypes
                0x0000000000000053       0x74 0x1 /usr/local/popcorn/x86_64/lib/libc.a(__libc_start_main.o)
 .debug_pubtypes
                0x00000000000000c7       0x3e 0x1 /usr/local/popcorn/x86_64/lib/libc.a(exit.o)
 .debug_pubtypes
                0x0000000000000105       0x72 0x1 /usr/local/popcorn/x86_64/lib/libc.a(libc.o)
 .debug_pubtypes
                0x0000000000000177       0x68 0x1 /usr/local/popcorn/x86_64/lib/libc.a(printf.o)
 .debug_pubtypes
                0x00000000000001df       0xc2 0x1 /usr/local/popcorn/x86_64/lib/libc.a(stdout.o)
 .debug_pubtypes
                0x00000000000002a1      0x1a5 0x1 /usr/local/popcorn/x86_64/lib/libc.a(vfprintf.o)
 .debug_pubtypes
                0x0000000000000446       0x3c 0x1 /usr/local/popcorn/x86_64/lib/libc.a(strnlen.o)
 .debug_pubtypes
                0x0000000000000482       0x1b 0x1 /usr/local/popcorn/x86_64/lib/libc.a(__environ.o)
 .debug_pubtypes
                0x000000000000049d      0x161 0x1 /usr/local/popcorn/x86_64/lib/libc.a(__init_tls.o)
 .debug_pubtypes
                0x00000000000005fe       0xb5 0x1 /usr/local/popcorn/x86_64/lib/libc.a(__errno_location.o)
 .debug_pubtypes
                0x00000000000006b3       0xc6 0x1 /usr/local/popcorn/x86_64/lib/libc.a(strerror.o)
 .debug_pubtypes
                0x0000000000000779       0x3d 0x1 /usr/local/popcorn/x86_64/lib/libc.a(_Exit.o)
 .debug_pubtypes
                0x00000000000007b6       0xc6 0x1 /usr/local/popcorn/x86_64/lib/libc.a(__lctrans.o)
 .debug_pubtypes
                0x000000000000087c       0x79 0x1 /usr/local/popcorn/x86_64/lib/libc.a(__fpclassifyl.o)
 .debug_pubtypes
                0x00000000000008f5       0x79 0x1 /usr/local/popcorn/x86_64/lib/libc.a(__signbitl.o)
 .debug_pubtypes
                0x000000000000096e       0x79 0x1 /usr/local/popcorn/x86_64/lib/libc.a(frexpl.o)
 .debug_pubtypes
                0x00000000000009e7       0x2f 0x1 /usr/local/popcorn/x86_64/lib/libc.a(wctomb.o)
 .debug_pubtypes
                0x0000000000000a16      0x100 0x1 /usr/local/popcorn/x86_64/lib/libc.a(__lockfile.o)
 .debug_pubtypes
                0x0000000000000b16       0xc2 0x1 /usr/local/popcorn/x86_64/lib/libc.a(__stdio_close.o)
 .debug_pubtypes
                0x0000000000000bd8       0xc2 0x1 /usr/local/popcorn/x86_64/lib/libc.a(__stdio_seek.o)
 .debug_pubtypes
                0x0000000000000c9a       0xe1 0x1 /usr/local/popcorn/x86_64/lib/libc.a(__stdout_write.o)
 .debug_pubtypes
                0x0000000000000d7b       0xc2 0x1 /usr/local/popcorn/x86_64/lib/libc.a(fwrite.o)
 .debug_pubtypes
                0x0000000000000e3d       0x5b 0x1 /usr/local/popcorn/x86_64/lib/libc.a(memchr.o)
 .debug_pubtypes
                0x0000000000000e98       0x3d 0x1 /usr/local/popcorn/x86_64/lib/libc.a(__wait.o)
 .debug_pubtypes
                0x0000000000000ed5       0x35 0x1 /usr/local/popcorn/x86_64/lib/libc.a(syscall_ret.o)
 .debug_pubtypes
                0x0000000000000f0a      0x101 0x1 /usr/local/popcorn/x86_64/lib/libc.a(wcrtomb.o)
 .debug_pubtypes
                0x000000000000100b       0xd8 0x1 /usr/local/popcorn/x86_64/lib/libc.a(__stdio_write.o)
 .debug_pubtypes
                0x00000000000010e3       0xc2 0x1 /usr/local/popcorn/x86_64/lib/libc.a(__towrite.o)
 .debug_pubtypes
                0x00000000000011a5       0xc2 0x1 /usr/local/popcorn/x86_64/lib/libc.a(__stdio_exit.o)
 .debug_pubtypes
                0x0000000000001267       0xc2 0x1 /usr/local/popcorn/x86_64/lib/libc.a(ofl.o)
 .debug_pubtypes
                0x0000000000001329       0x3d 0x1 /usr/local/popcorn/x86_64/lib/libc.a(__lock.o)
 .debug_pubtypes
                0x0000000000001366       0x87 0x1 /usr/local/popcorn/x86_64/lib/libmigrate.a(migrate.o)
 .debug_pubtypes
                0x00000000000013ed       0xc4 0x1 /usr/local/popcorn/x86_64/lib/libmigrate.a(trigger.o)
 .debug_pubtypes
                0x00000000000014b1       0x67 0x1 /usr/local/popcorn/x86_64/lib/libmigrate.a(mapping.o)
 .debug_pubtypes
                0x0000000000001518      0x1ec 0x1 /usr/local/popcorn/x86_64/lib/libstack-transform.a(userspace.o)
 .debug_pubtypes
                0x0000000000001704      0x1cf 0x1 /usr/local/popcorn/x86_64/lib/libstack-transform.a(init.o)
 .debug_pubtypes
                0x00000000000018d3      0x1ec 0x1 /usr/local/popcorn/x86_64/lib/libstack-transform.a(rewrite.o)
 .debug_pubtypes
                0x0000000000001abf      0x1ec 0x1 /usr/local/popcorn/x86_64/lib/libstack-transform.a(unwind.o)
 .debug_pubtypes
                0x0000000000001cab      0x20e 0x1 /usr/local/popcorn/x86_64/lib/libstack-transform.a(util.o)
 .debug_pubtypes
                0x0000000000001eb9       0x8f 0x1 /usr/local/popcorn/x86_64/lib/libstack-transform.a(properties.o)
 .debug_pubtypes
                0x0000000000001f48       0xa0 0x1 /usr/local/popcorn/x86_64/lib/libstack-transform.a(regs.o)
 .debug_pubtypes
                0x0000000000001fe8       0x8f 0x1 /usr/local/popcorn/x86_64/lib/libstack-transform.a(properties.o)
 .debug_pubtypes
                0x0000000000002077       0x8c 0x1 /usr/local/popcorn/x86_64/lib/libstack-transform.a(regs.o)
 .debug_pubtypes
                0x0000000000002103       0x8f 0x1 /usr/local/popcorn/x86_64/lib/libstack-transform.a(properties.o)
 .debug_pubtypes
                0x0000000000002192       0xcd 0x1 /usr/local/popcorn/x86_64/lib/libstack-transform.a(regs.o)
 .debug_pubtypes
                0x000000000000225f      0x20c 0x1 /usr/local/popcorn/x86_64/lib/libstack-transform.a(data.o)
 .debug_pubtypes
                0x000000000000246b       0x29 0x1 /usr/local/popcorn/x86_64/lib/libc.a(arch_crash.o)
 .debug_pubtypes
                0x0000000000002494       0x3c 0x1 /usr/local/popcorn/x86_64/lib/libc.a(getenv.o)
 .debug_pubtypes
                0x00000000000024d0       0x89 0x1 /usr/local/popcorn/x86_64/lib/libc.a(platform.o)
 .debug_pubtypes
                0x0000000000002559       0x23 0x1 /usr/local/popcorn/x86_64/lib/libc.a(assert.o)
 .debug_pubtypes
                0x000000000000257c       0x96 0x1 /usr/local/popcorn/x86_64/lib/libc.a(open.o)
 .debug_pubtypes
                0x0000000000002612       0x3b 0x1 /usr/local/popcorn/x86_64/lib/libc.a(calloc.o)
 .debug_pubtypes
                0x000000000000264d       0x52 0x1 /usr/local/popcorn/x86_64/lib/libc.a(lite_malloc.o)
 .debug_pubtypes
                0x000000000000269f       0x90 0x1 /usr/local/popcorn/x86_64/lib/libc.a(malloc.o)
 .debug_pubtypes
                0x000000000000272f       0x90 0x1 /usr/local/popcorn/x86_64/lib/libc.a(popcorn_malloc.o)
 .debug_pubtypes
                0x00000000000027bf       0x6e 0x1 /usr/local/popcorn/x86_64/lib/libc.a(getrlimit.o)
 .debug_pubtypes
                0x000000000000282d       0x8c 0x1 /usr/local/popcorn/x86_64/lib/libc.a(syscall.o)
 .debug_pubtypes
                0x00000000000028b9       0x48 0x1 /usr/local/popcorn/x86_64/lib/libc.a(madvise.o)
 .debug_pubtypes
                0x0000000000002901       0x52 0x1 /usr/local/popcorn/x86_64/lib/libc.a(mmap.o)
 .debug_pubtypes
                0x0000000000002953       0x8d 0x1 /usr/local/popcorn/x86_64/lib/libc.a(mremap.o)
 .debug_pubtypes
                0x00000000000029e0       0x48 0x1 /usr/local/popcorn/x86_64/lib/libc.a(munmap.o)
 .debug_pubtypes
                0x0000000000002a28       0xef 0x1 /usr/local/popcorn/x86_64/lib/libc.a(sigaction.o)
 .debug_pubtypes
                0x0000000000002b17       0x4c 0x1 /usr/local/popcorn/x86_64/lib/libc.a(sigemptyset.o)
 .debug_pubtypes
                0x0000000000002b63       0x1a 0x1 /usr/local/popcorn/x86_64/lib/libc.a(sigrtmin.o)
 .debug_pubtypes
                0x0000000000002b7d       0xc2 0x1 /usr/local/popcorn/x86_64/lib/libc.a(fclose.o)
 .debug_pubtypes
                0x0000000000002c3f       0xc2 0x1 /usr/local/popcorn/x86_64/lib/libc.a(fflush.o)
 .debug_pubtypes
                0x0000000000002d01       0xc2 0x1 /usr/local/popcorn/x86_64/lib/libc.a(fopen.o)
 .debug_pubtypes
                0x0000000000002dc3       0x71 0x1 /usr/local/popcorn/x86_64/lib/libc.a(fprintf.o)
 .debug_pubtypes
                0x0000000000002e34       0x71 0x1 /usr/local/popcorn/x86_64/lib/libc.a(fscanf.o)
 .debug_pubtypes
                0x0000000000002ea5       0xc2 0x1 /usr/local/popcorn/x86_64/lib/libc.a(fseek.o)
 .debug_pubtypes
                0x0000000000002f67       0xc2 0x1 /usr/local/popcorn/x86_64/lib/libc.a(getc.o)
 .debug_pubtypes
                0x0000000000003029       0x5e 0x1 /usr/local/popcorn/x86_64/lib/libc.a(getline.o)
 .debug_pubtypes
                0x0000000000003087       0xc2 0x1 /usr/local/popcorn/x86_64/lib/libc.a(perror.o)
 .debug_pubtypes
                0x0000000000003149       0x89 0x1 /usr/local/popcorn/x86_64/lib/libc.a(snprintf.o)
 .debug_pubtypes
                0x00000000000031d2       0x68 0x1 /usr/local/popcorn/x86_64/lib/libc.a(sscanf.o)
 .debug_pubtypes
                0x000000000000323a       0xc2 0x1 /usr/local/popcorn/x86_64/lib/libc.a(stderr.o)
 .debug_pubtypes
                0x00000000000032fc      0x180 0x1 /usr/local/popcorn/x86_64/lib/libc.a(vfscanf.o)
 .debug_pubtypes
                0x000000000000347c       0xdf 0x1 /usr/local/popcorn/x86_64/lib/libc.a(vsnprintf.o)
 .debug_pubtypes
                0x000000000000355b       0xd4 0x1 /usr/local/popcorn/x86_64/lib/libc.a(vsscanf.o)
 .debug_pubtypes
                0x000000000000362f       0x44 0x1 /usr/local/popcorn/x86_64/lib/libc.a(bsearch.o)
 .debug_pubtypes
                0x0000000000003673       0x6e 0x1 /usr/local/popcorn/x86_64/lib/libc.a(qsort.o)
 .debug_pubtypes
                0x00000000000036e1      0x10a 0x1 /usr/local/popcorn/x86_64/lib/libc.a(strtol.o)
 .debug_pubtypes
                0x00000000000037eb       0x35 0x1 /usr/local/popcorn/x86_64/lib/libc.a(strchr.o)
 .debug_pubtypes
                0x0000000000003820       0x64 0x1 /usr/local/popcorn/x86_64/lib/libc.a(strchrnul.o)
 .debug_pubtypes
                0x0000000000003884       0x35 0x1 /usr/local/popcorn/x86_64/lib/libc.a(strcmp.o)
 .debug_pubtypes
                0x00000000000038b9       0x4a 0x1 /usr/local/popcorn/x86_64/lib/libc.a(strlen.o)
 .debug_pubtypes
                0x0000000000003903       0x56 0x1 /usr/local/popcorn/x86_64/lib/libc.a(strncmp.o)
 .debug_pubtypes
                0x0000000000003959       0x31 0x1 /usr/local/popcorn/x86_64/lib/libc.a(__syscall_cp.o)
 .debug_pubtypes
                0x000000000000398a      0x104 0x1 /usr/local/popcorn/x86_64/lib/libc.a(pthread_attr_get.o)
 .debug_pubtypes
                0x0000000000003a8e       0xd6 0x1 /usr/local/popcorn/x86_64/lib/libc.a(pthread_getattr_np.o)
 .debug_pubtypes
                0x0000000000003b64       0xb5 0x1 /usr/local/popcorn/x86_64/lib/libc.a(pthread_migrate.o)
 .debug_pubtypes
                0x0000000000003c19       0xc3 0x1 /usr/local/popcorn/x86_64/lib/libc.a(pthread_self.o)
 .debug_pubtypes
                0x0000000000003cdc       0x27 0x1 /usr/local/popcorn/x86_64/lib/libc.a(close.o)
 .debug_pubtypes
                0x0000000000003d03       0x47 0x1 /usr/local/popcorn/x86_64/lib/libc.a(getpid.o)
 .debug_pubtypes
                0x0000000000003d4a       0x47 0x1 /usr/local/popcorn/x86_64/lib/libc.a(lseek.o)
 .debug_pubtypes
                0x0000000000003d91       0x54 0x1 /usr/local/popcorn/x86_64/lib/libc.a(read.o)
 .debug_pubtypes
                0x0000000000003de5       0xfe 0x1 /usr/local/popcorn/x86_64/lib/libc.a(floatscan.o)
 .debug_pubtypes
                0x0000000000003ee3       0xdd 0x1 /usr/local/popcorn/x86_64/lib/libc.a(intscan.o)
 .debug_pubtypes
                0x0000000000003fc0       0xc2 0x1 /usr/local/popcorn/x86_64/lib/libc.a(shgetc.o)
 .debug_pubtypes
                0x0000000000004082       0x67 0x1 /usr/local/popcorn/x86_64/lib/libc.a(expand_heap.o)
 .debug_pubtypes
                0x00000000000040e9       0x71 0x1 /usr/local/popcorn/x86_64/lib/libc.a(copysignl.o)
 .debug_pubtypes
                0x000000000000415a       0x55 0x1 /usr/local/popcorn/x86_64/lib/libc.a(scalbn.o)
 .debug_pubtypes
                0x00000000000041af       0x79 0x1 /usr/local/popcorn/x86_64/lib/libc.a(scalbnl.o)
 .debug_pubtypes
                0x0000000000004228      0x11d 0x1 /usr/local/popcorn/x86_64/lib/libc.a(mbrtowc.o)
 .debug_pubtypes
                0x0000000000004345       0x49 0x1 /usr/local/popcorn/x86_64/lib/libc.a(mbsinit.o)
 .debug_pubtypes
                0x000000000000438e       0x35 0x1 /usr/local/popcorn/x86_64/lib/libc.a(block.o)
 .debug_pubtypes
                0x00000000000043c3       0x59 0x1 /usr/local/popcorn/x86_64/lib/libc.a(raise.o)
 .debug_pubtypes
                0x000000000000441c       0xe1 0x1 /usr/local/popcorn/x86_64/lib/libc.a(__fdopen.o)
 .debug_pubtypes
                0x00000000000044fd       0x23 0x1 /usr/local/popcorn/x86_64/lib/libc.a(__fmodeflags.o)
 .debug_pubtypes
                0x0000000000004520       0xd8 0x1 /usr/local/popcorn/x86_64/lib/libc.a(__stdio_read.o)
 .debug_pubtypes
                0x00000000000045f8       0xc2 0x1 /usr/local/popcorn/x86_64/lib/libc.a(__string_read.o)
 .debug_pubtypes
                0x00000000000046ba       0xc2 0x1 /usr/local/popcorn/x86_64/lib/libc.a(__uflow.o)
 .debug_pubtypes
                0x000000000000477c       0xc2 0x1 /usr/local/popcorn/x86_64/lib/libc.a(fputc.o)
 .debug_pubtypes
                0x000000000000483e       0xce 0x1 /usr/local/popcorn/x86_64/lib/libc.a(getdelim.o)
 .debug_pubtypes
                0x000000000000490c       0xc2 0x1 /usr/local/popcorn/x86_64/lib/libc.a(ofl_add.o)
 .debug_pubtypes
                0x00000000000049ce       0x30 0x1 /usr/local/popcorn/x86_64/lib/libc.a(internal.o)
 .debug_pubtypes
                0x00000000000049fe       0xc2 0x1 /usr/local/popcorn/x86_64/lib/libc.a(__overflow.o)
 .debug_pubtypes
                0x0000000000004ac0       0xc2 0x1 /usr/local/popcorn/x86_64/lib/libc.a(__toread.o)

.comment        0x0000000000000000       0x35
 ** merge strings
                0x0000000000000000       0x35

.stack_transform.unwind
                0x0000000000000000       0xd8
 .stack_transform.unwind
                0x0000000000000000       0x10 0x4 popcorn-hello_x86_64.o
 .stack_transform.unwind
                0x0000000000000010       0x18 0x4 /usr/local/popcorn/x86_64/lib/libc.a(__libc_start_main.o)
 .stack_transform.unwind
                0x0000000000000028       0x70 0x4 /usr/local/popcorn/x86_64/lib/libmigrate.a(migrate.o)
 .stack_transform.unwind
                0x0000000000000098       0x10 0x4 /usr/local/popcorn/x86_64/lib/libmigrate.a(trigger.o)
 .stack_transform.unwind
                0x00000000000000a8       0x30 0x4 /usr/local/popcorn/x86_64/lib/libmigrate.a(mapping.o)

.stack_transform.unwind_arange
                0x0000000000000000       0xe0
 .stack_transform.unwind_arange
                0x0000000000000000       0x10 0x8 popcorn-hello_x86_64.o
 .stack_transform.unwind_arange
                0x0000000000000010       0x10 0x8 /usr/local/popcorn/x86_64/lib/libc.a(__libc_start_main.o)
 .stack_transform.unwind_arange
                0x0000000000000020       0x70 0x8 /usr/local/popcorn/x86_64/lib/libmigrate.a(migrate.o)
 .stack_transform.unwind_arange
                0x0000000000000090       0x20 0x8 /usr/local/popcorn/x86_64/lib/libmigrate.a(trigger.o)
 .stack_transform.unwind_arange
                0x00000000000000b0       0x30 0x8 /usr/local/popcorn/x86_64/lib/libmigrate.a(mapping.o)

.debug_line     0x0000000000000000     0xd17b
 .debug_line    0x0000000000000000       0x63 0x1 popcorn-hello_x86_64.o
 .debug_line    0x0000000000000063       0x48 0x1 /usr/local/popcorn/x86_64/lib/crt1.o
 .debug_line    0x00000000000000ab      0x245 0x1 /usr/local/popcorn/x86_64/lib/libc.a(__libc_start_main.o)
 .debug_line    0x00000000000002f0       0xb1 0x1 /usr/local/popcorn/x86_64/lib/libc.a(exit.o)
 .debug_line    0x00000000000003a1       0x6c 0x1 /usr/local/popcorn/x86_64/lib/libc.a(libc.o)
 .debug_line    0x000000000000040d       0x76 0x1 /usr/local/popcorn/x86_64/lib/libc.a(printf.o)
 .debug_line    0x0000000000000483       0x7b 0x1 /usr/local/popcorn/x86_64/lib/libc.a(stdout.o)
 .debug_line    0x00000000000004fe     0x13f2 0x1 /usr/local/popcorn/x86_64/lib/libc.a(vfprintf.o)
 .debug_line    0x00000000000018f0       0x73 0x1 /usr/local/popcorn/x86_64/lib/libc.a(strnlen.o)
 .debug_line    0x0000000000001963       0x72 0x1 /usr/local/popcorn/x86_64/lib/libc.a(memset.o)
 .debug_line    0x00000000000019d5       0x34 0x1 /usr/local/popcorn/x86_64/lib/libc.a(__environ.o)
 .debug_line    0x0000000000001a09      0x258 0x1 /usr/local/popcorn/x86_64/lib/libc.a(__init_tls.o)
 .debug_line    0x0000000000001c61       0xde 0x1 /usr/local/popcorn/x86_64/lib/libc.a(__errno_location.o)
 .debug_line    0x0000000000001d3f      0x136 0x1 /usr/local/popcorn/x86_64/lib/libc.a(strerror.o)
 .debug_line    0x0000000000001e75       0x71 0x1 /usr/local/popcorn/x86_64/lib/libc.a(_Exit.o)
 .debug_line    0x0000000000001ee6      0x11b 0x1 /usr/local/popcorn/x86_64/lib/libc.a(__lctrans.o)
 .debug_line    0x0000000000002001       0xae 0x1 /usr/local/popcorn/x86_64/lib/libc.a(__fpclassifyl.o)
 .debug_line    0x00000000000020af       0x87 0x1 /usr/local/popcorn/x86_64/lib/libc.a(__signbitl.o)
 .debug_line    0x0000000000002136       0xa5 0x1 /usr/local/popcorn/x86_64/lib/libc.a(frexpl.o)
 .debug_line    0x00000000000021db       0x71 0x1 /usr/local/popcorn/x86_64/lib/libc.a(wctomb.o)
 .debug_line    0x000000000000224c      0x175 0x1 /usr/local/popcorn/x86_64/lib/libc.a(__lockfile.o)
 .debug_line    0x00000000000023c1       0xd8 0x1 /usr/local/popcorn/x86_64/lib/libc.a(__stdio_close.o)
 .debug_line    0x0000000000002499       0xc4 0x1 /usr/local/popcorn/x86_64/lib/libc.a(__stdio_seek.o)
 .debug_line    0x000000000000255d      0x107 0x1 /usr/local/popcorn/x86_64/lib/libc.a(__stdout_write.o)
 .debug_line    0x0000000000002664      0x138 0x1 /usr/local/popcorn/x86_64/lib/libc.a(fwrite.o)
 .debug_line    0x000000000000279c       0xf5 0x1 /usr/local/popcorn/x86_64/lib/libc.a(memchr.o)
 .debug_line    0x0000000000002891       0x4e 0x1 /usr/local/popcorn/x86_64/lib/libc.a(memcpy.o)
 .debug_line    0x00000000000028df       0xfb 0x1 /usr/local/popcorn/x86_64/lib/libc.a(__wait.o)
 .debug_line    0x00000000000029da       0x49 0x1 /usr/local/popcorn/x86_64/lib/libc.a(__set_thread_area.o)
 .debug_line    0x0000000000002a23       0x5e 0x1 /usr/local/popcorn/x86_64/lib/libc.a(syscall_ret.o)
 .debug_line    0x0000000000002a81      0x181 0x1 /usr/local/popcorn/x86_64/lib/libc.a(wcrtomb.o)
 .debug_line    0x0000000000002c02      0x142 0x1 /usr/local/popcorn/x86_64/lib/libc.a(__stdio_write.o)
 .debug_line    0x0000000000002d44       0xdd 0x1 /usr/local/popcorn/x86_64/lib/libc.a(__towrite.o)
 .debug_line    0x0000000000002e21       0xf5 0x1 /usr/local/popcorn/x86_64/lib/libc.a(__stdio_exit.o)
 .debug_line    0x0000000000002f16       0xa9 0x1 /usr/local/popcorn/x86_64/lib/libc.a(ofl.o)
 .debug_line    0x0000000000002fbf      0x114 0x1 /usr/local/popcorn/x86_64/lib/libc.a(__lock.o)
 .debug_line    0x00000000000030d3      0x39a 0x1 /usr/local/popcorn/x86_64/lib/libmigrate.a(migrate.o)
 .debug_line    0x000000000000346d      0x12a 0x1 /usr/local/popcorn/x86_64/lib/libmigrate.a(trigger.o)
 .debug_line    0x0000000000003597      0x34a 0x1 /usr/local/popcorn/x86_64/lib/libmigrate.a(mapping.o)
 .debug_line    0x00000000000038e1      0x432 0x1 /usr/local/popcorn/x86_64/lib/libstack-transform.a(userspace.o)
 .debug_line    0x0000000000003d13      0x2ca 0x1 /usr/local/popcorn/x86_64/lib/libstack-transform.a(init.o)
 .debug_line    0x0000000000003fdd      0x6e1 0x1 /usr/local/popcorn/x86_64/lib/libstack-transform.a(rewrite.o)
 .debug_line    0x00000000000046be      0x447 0x1 /usr/local/popcorn/x86_64/lib/libstack-transform.a(unwind.o)
 .debug_line    0x0000000000004b05      0x3b0 0x1 /usr/local/popcorn/x86_64/lib/libstack-transform.a(util.o)
 .debug_line    0x0000000000004eb5       0xeb 0x1 /usr/local/popcorn/x86_64/lib/libstack-transform.a(properties.o)
 .debug_line    0x0000000000004fa0      0x2e6 0x1 /usr/local/popcorn/x86_64/lib/libstack-transform.a(regs.o)
 .debug_line    0x0000000000005286       0xf6 0x1 /usr/local/popcorn/x86_64/lib/libstack-transform.a(properties.o)
 .debug_line    0x000000000000537c      0x2f3 0x1 /usr/local/popcorn/x86_64/lib/libstack-transform.a(regs.o)
 .debug_line    0x000000000000566f       0xe4 0x1 /usr/local/popcorn/x86_64/lib/libstack-transform.a(properties.o)
 .debug_line    0x0000000000005753      0x2c0 0x1 /usr/local/popcorn/x86_64/lib/libstack-transform.a(regs.o)
 .debug_line    0x0000000000005a13      0x6bf 0x1 /usr/local/popcorn/x86_64/lib/libstack-transform.a(data.o)
 .debug_line    0x00000000000060d2       0x9b 0x1 /usr/local/popcorn/x86_64/lib/libc.a(arch_crash.o)
 .debug_line    0x000000000000616d       0x9b 0x1 /usr/local/popcorn/x86_64/lib/libc.a(getenv.o)
 .debug_line    0x0000000000006208      0x102 0x1 /usr/local/popcorn/x86_64/lib/libc.a(platform.o)
 .debug_line    0x000000000000630a       0x4e 0x1 /usr/local/popcorn/x86_64/lib/libc.a(assert.o)
 .debug_line    0x0000000000006358       0xc1 0x1 /usr/local/popcorn/x86_64/lib/libc.a(open.o)
 .debug_line    0x0000000000006419       0xf8 0x1 /usr/local/popcorn/x86_64/lib/libc.a(calloc.o)
 .debug_line    0x0000000000006511       0xd6 0x1 /usr/local/popcorn/x86_64/lib/libc.a(lite_malloc.o)
 .debug_line    0x00000000000065e7      0xc6a 0x1 /usr/local/popcorn/x86_64/lib/libc.a(malloc.o)
 .debug_line    0x0000000000007251      0xf10 0x1 /usr/local/popcorn/x86_64/lib/libc.a(popcorn_malloc.o)
 .debug_line    0x0000000000008161       0xfe 0x1 /usr/local/popcorn/x86_64/lib/libc.a(getrlimit.o)
 .debug_line    0x000000000000825f      0x172 0x1 /usr/local/popcorn/x86_64/lib/libc.a(syscall.o)
 .debug_line    0x00000000000083d1       0x95 0x1 /usr/local/popcorn/x86_64/lib/libc.a(madvise.o)
 .debug_line    0x0000000000008466       0xe7 0x1 /usr/local/popcorn/x86_64/lib/libc.a(mmap.o)
 .debug_line    0x000000000000854d       0xe1 0x1 /usr/local/popcorn/x86_64/lib/libc.a(mremap.o)
 .debug_line    0x000000000000862e       0xa7 0x1 /usr/local/popcorn/x86_64/lib/libc.a(munmap.o)
 .debug_line    0x00000000000086d5      0x1bb 0x1 /usr/local/popcorn/x86_64/lib/libc.a(sigaction.o)
 .debug_line    0x0000000000008890       0x70 0x1 /usr/local/popcorn/x86_64/lib/libc.a(sigemptyset.o)
 .debug_line    0x0000000000008900       0x4b 0x1 /usr/local/popcorn/x86_64/lib/libc.a(sigrtmin.o)
 .debug_line    0x000000000000894b       0x3c 0x1 /usr/local/popcorn/x86_64/lib/libc.a(restore.o)
 .debug_line    0x0000000000008987      0x10c 0x1 /usr/local/popcorn/x86_64/lib/libc.a(fclose.o)
 .debug_line    0x0000000000008a93      0x12e 0x1 /usr/local/popcorn/x86_64/lib/libc.a(fflush.o)
 .debug_line    0x0000000000008bc1       0xf4 0x1 /usr/local/popcorn/x86_64/lib/libc.a(fopen.o)
 .debug_line    0x0000000000008cb5       0x72 0x1 /usr/local/popcorn/x86_64/lib/libc.a(fprintf.o)
 .debug_line    0x0000000000008d27       0x71 0x1 /usr/local/popcorn/x86_64/lib/libc.a(fscanf.o)
 .debug_line    0x0000000000008d98      0x113 0x1 /usr/local/popcorn/x86_64/lib/libc.a(fseek.o)
 .debug_line    0x0000000000008eab       0xbe 0x1 /usr/local/popcorn/x86_64/lib/libc.a(getc.o)
 .debug_line    0x0000000000008f69       0x68 0x1 /usr/local/popcorn/x86_64/lib/libc.a(getline.o)
 .debug_line    0x0000000000008fd1       0xd2 0x1 /usr/local/popcorn/x86_64/lib/libc.a(perror.o)
 .debug_line    0x00000000000090a3       0x73 0x1 /usr/local/popcorn/x86_64/lib/libc.a(snprintf.o)
 .debug_line    0x0000000000009116       0x71 0x1 /usr/local/popcorn/x86_64/lib/libc.a(sscanf.o)
 .debug_line    0x0000000000009187       0x7b 0x1 /usr/local/popcorn/x86_64/lib/libc.a(stderr.o)
 .debug_line    0x0000000000009202      0x663 0x1 /usr/local/popcorn/x86_64/lib/libc.a(vfscanf.o)
 .debug_line    0x0000000000009865      0x136 0x1 /usr/local/popcorn/x86_64/lib/libc.a(vsnprintf.o)
 .debug_line    0x000000000000999b       0xb6 0x1 /usr/local/popcorn/x86_64/lib/libc.a(vsscanf.o)
 .debug_line    0x0000000000009a51       0x92 0x1 /usr/local/popcorn/x86_64/lib/libc.a(bsearch.o)
 .debug_line    0x0000000000009ae3      0x40e 0x1 /usr/local/popcorn/x86_64/lib/libc.a(qsort.o)
 .debug_line    0x0000000000009ef1      0x169 0x1 /usr/local/popcorn/x86_64/lib/libc.a(strtol.o)
 .debug_line    0x000000000000a05a       0x59 0x1 /usr/local/popcorn/x86_64/lib/libc.a(strchr.o)
 .debug_line    0x000000000000a0b3       0xe4 0x1 /usr/local/popcorn/x86_64/lib/libc.a(strchrnul.o)
 .debug_line    0x000000000000a197       0x76 0x1 /usr/local/popcorn/x86_64/lib/libc.a(strcmp.o)
 .debug_line    0x000000000000a20d       0xb2 0x1 /usr/local/popcorn/x86_64/lib/libc.a(strlen.o)
 .debug_line    0x000000000000a2bf       0x96 0x1 /usr/local/popcorn/x86_64/lib/libc.a(strncmp.o)
 .debug_line    0x000000000000a355       0x47 0x1 /usr/local/popcorn/x86_64/lib/libc.a(memmove.o)
 .debug_line    0x000000000000a39c       0x88 0x1 /usr/local/popcorn/x86_64/lib/libc.a(__syscall_cp.o)
 .debug_line    0x000000000000a424      0x27d 0x1 /usr/local/popcorn/x86_64/lib/libc.a(pthread_attr_get.o)
 .debug_line    0x000000000000a6a1      0x119 0x1 /usr/local/popcorn/x86_64/lib/libc.a(pthread_getattr_np.o)
 .debug_line    0x000000000000a7ba      0x103 0x1 /usr/local/popcorn/x86_64/lib/libc.a(pthread_migrate.o)
 .debug_line    0x000000000000a8bd       0xd5 0x1 /usr/local/popcorn/x86_64/lib/libc.a(pthread_self.o)
 .debug_line    0x000000000000a992       0x6d 0x1 /usr/local/popcorn/x86_64/lib/libc.a(close.o)
 .debug_line    0x000000000000a9ff       0x8d 0x1 /usr/local/popcorn/x86_64/lib/libc.a(getpid.o)
 .debug_line    0x000000000000aa8c       0x95 0x1 /usr/local/popcorn/x86_64/lib/libc.a(lseek.o)
 .debug_line    0x000000000000ab21       0x66 0x1 /usr/local/popcorn/x86_64/lib/libc.a(read.o)
 .debug_line    0x000000000000ab87       0x73 0x1 /usr/local/popcorn/x86_64/lib/libc.a(abort.o)
 .debug_line    0x000000000000abfa      0xd74 0x1 /usr/local/popcorn/x86_64/lib/libc.a(floatscan.o)
 .debug_line    0x000000000000b96e      0x388 0x1 /usr/local/popcorn/x86_64/lib/libc.a(intscan.o)
 .debug_line    0x000000000000bcf6      0x12e 0x1 /usr/local/popcorn/x86_64/lib/libc.a(shgetc.o)
 .debug_line    0x000000000000be24       0x43 0x1 /usr/local/popcorn/x86_64/lib/libc.a(syscall.o)
 .debug_line    0x000000000000be67      0x33d 0x1 /usr/local/popcorn/x86_64/lib/libc.a(expand_heap.o)
 .debug_line    0x000000000000c1a4       0x93 0x1 /usr/local/popcorn/x86_64/lib/libc.a(copysignl.o)
 .debug_line    0x000000000000c237       0xa4 0x1 /usr/local/popcorn/x86_64/lib/libc.a(scalbn.o)
 .debug_line    0x000000000000c2db       0xbb 0x1 /usr/local/popcorn/x86_64/lib/libc.a(scalbnl.o)
 .debug_line    0x000000000000c396       0x3d 0x1 /usr/local/popcorn/x86_64/lib/libc.a(fabs.o)
 .debug_line    0x000000000000c3d3       0x40 0x1 /usr/local/popcorn/x86_64/lib/libc.a(fmodl.o)
 .debug_line    0x000000000000c413      0x194 0x1 /usr/local/popcorn/x86_64/lib/libc.a(mbrtowc.o)
 .debug_line    0x000000000000c5a7       0x7e 0x1 /usr/local/popcorn/x86_64/lib/libc.a(mbsinit.o)
 .debug_line    0x000000000000c625       0xb0 0x1 /usr/local/popcorn/x86_64/lib/libc.a(block.o)
 .debug_line    0x000000000000c6d5       0xa2 0x1 /usr/local/popcorn/x86_64/lib/libc.a(raise.o)
 .debug_line    0x000000000000c777      0x18b 0x1 /usr/local/popcorn/x86_64/lib/libc.a(__fdopen.o)
 .debug_line    0x000000000000c902       0xb7 0x1 /usr/local/popcorn/x86_64/lib/libc.a(__fmodeflags.o)
 .debug_line    0x000000000000c9b9      0x121 0x1 /usr/local/popcorn/x86_64/lib/libc.a(__stdio_read.o)
 .debug_line    0x000000000000cada       0xc8 0x1 /usr/local/popcorn/x86_64/lib/libc.a(__string_read.o)
 .debug_line    0x000000000000cba2       0xaa 0x1 /usr/local/popcorn/x86_64/lib/libc.a(__uflow.o)
 .debug_line    0x000000000000cc4c       0xc9 0x1 /usr/local/popcorn/x86_64/lib/libc.a(fputc.o)
 .debug_line    0x000000000000cd15      0x1ab 0x1 /usr/local/popcorn/x86_64/lib/libc.a(getdelim.o)
 .debug_line    0x000000000000cec0       0xa8 0x1 /usr/local/popcorn/x86_64/lib/libc.a(ofl_add.o)
 .debug_line    0x000000000000cf68       0x58 0x1 /usr/local/popcorn/x86_64/lib/libc.a(internal.o)
 .debug_line    0x000000000000cfc0       0xd7 0x1 /usr/local/popcorn/x86_64/lib/libc.a(__overflow.o)
 .debug_line    0x000000000000d097       0xe4 0x1 /usr/local/popcorn/x86_64/lib/libc.a(__toread.o)

.debug_frame    0x0000000000000000     0x2390
 .debug_frame   0x0000000000000000       0x38 0x8 /usr/local/popcorn/x86_64/lib/crt1.o
 .debug_frame   0x0000000000000038       0xd0 0x8 /usr/local/popcorn/x86_64/lib/libc.a(__libc_start_main.o)
 .debug_frame   0x0000000000000108       0x78 0x8 /usr/local/popcorn/x86_64/lib/libc.a(exit.o)
 .debug_frame   0x0000000000000180       0x38 0x8 /usr/local/popcorn/x86_64/lib/libc.a(printf.o)
 .debug_frame   0x00000000000001b8      0x108 0x8 /usr/local/popcorn/x86_64/lib/libc.a(vfprintf.o)
 .debug_frame   0x00000000000002c0       0x40 0x8 /usr/local/popcorn/x86_64/lib/libc.a(strnlen.o)
 .debug_frame   0x0000000000000300       0x90 0x8 /usr/local/popcorn/x86_64/lib/libc.a(__init_tls.o)
 .debug_frame   0x0000000000000390       0x30 0x8 /usr/local/popcorn/x86_64/lib/libc.a(__errno_location.o)
 .debug_frame   0x00000000000003c0       0x48 0x8 /usr/local/popcorn/x86_64/lib/libc.a(strerror.o)
 .debug_frame   0x0000000000000408       0x30 0x8 /usr/local/popcorn/x86_64/lib/libc.a(_Exit.o)
 .debug_frame   0x0000000000000438       0x60 0x8 /usr/local/popcorn/x86_64/lib/libc.a(__lctrans.o)
 .debug_frame   0x0000000000000498       0x30 0x8 /usr/local/popcorn/x86_64/lib/libc.a(__fpclassifyl.o)
 .debug_frame   0x00000000000004c8       0x30 0x8 /usr/local/popcorn/x86_64/lib/libc.a(__signbitl.o)
 .debug_frame   0x00000000000004f8       0x38 0x8 /usr/local/popcorn/x86_64/lib/libc.a(frexpl.o)
 .debug_frame   0x0000000000000530       0x38 0x8 /usr/local/popcorn/x86_64/lib/libc.a(wctomb.o)
 .debug_frame   0x0000000000000568       0x60 0x8 /usr/local/popcorn/x86_64/lib/libc.a(__lockfile.o)
 .debug_frame   0x00000000000005c8       0x50 0x8 /usr/local/popcorn/x86_64/lib/libc.a(__stdio_close.o)
 .debug_frame   0x0000000000000618       0x30 0x8 /usr/local/popcorn/x86_64/lib/libc.a(__stdio_seek.o)
 .debug_frame   0x0000000000000648       0x38 0x8 /usr/local/popcorn/x86_64/lib/libc.a(__stdout_write.o)
 .debug_frame   0x0000000000000680       0x90 0x8 /usr/local/popcorn/x86_64/lib/libc.a(fwrite.o)
 .debug_frame   0x0000000000000710       0x30 0x8 /usr/local/popcorn/x86_64/lib/libc.a(memchr.o)
 .debug_frame   0x0000000000000740       0x38 0x8 /usr/local/popcorn/x86_64/lib/libc.a(__wait.o)
 .debug_frame   0x0000000000000778       0x38 0x8 /usr/local/popcorn/x86_64/lib/libc.a(syscall_ret.o)
 .debug_frame   0x00000000000007b0       0x38 0x8 /usr/local/popcorn/x86_64/lib/libc.a(wcrtomb.o)
 .debug_frame   0x00000000000007e8       0x58 0x8 /usr/local/popcorn/x86_64/lib/libc.a(__stdio_write.o)
 .debug_frame   0x0000000000000840       0x48 0x8 /usr/local/popcorn/x86_64/lib/libc.a(__towrite.o)
 .debug_frame   0x0000000000000888       0x58 0x8 /usr/local/popcorn/x86_64/lib/libc.a(__stdio_exit.o)
 .debug_frame   0x00000000000008e0       0x50 0x8 /usr/local/popcorn/x86_64/lib/libc.a(ofl.o)
 .debug_frame   0x0000000000000930       0x58 0x8 /usr/local/popcorn/x86_64/lib/libc.a(__lock.o)
 .debug_frame   0x0000000000000988       0x88 0x8 /usr/local/popcorn/x86_64/lib/libc.a(arch_crash.o)
 .debug_frame   0x0000000000000a10       0x48 0x8 /usr/local/popcorn/x86_64/lib/libc.a(getenv.o)
 .debug_frame   0x0000000000000a58       0x78 0x8 /usr/local/popcorn/x86_64/lib/libc.a(platform.o)
 .debug_frame   0x0000000000000ad0       0x38 0x8 /usr/local/popcorn/x86_64/lib/libc.a(assert.o)
 .debug_frame   0x0000000000000b08       0x40 0x8 /usr/local/popcorn/x86_64/lib/libc.a(open.o)
 .debug_frame   0x0000000000000b48       0x80 0x8 /usr/local/popcorn/x86_64/lib/libc.a(calloc.o)
 .debug_frame   0x0000000000000bc8       0x48 0x8 /usr/local/popcorn/x86_64/lib/libc.a(lite_malloc.o)
 .debug_frame   0x0000000000000c10      0x1a0 0x8 /usr/local/popcorn/x86_64/lib/libc.a(malloc.o)
 .debug_frame   0x0000000000000db0      0x158 0x8 /usr/local/popcorn/x86_64/lib/libc.a(popcorn_malloc.o)
 .debug_frame   0x0000000000000f08       0x48 0x8 /usr/local/popcorn/x86_64/lib/libc.a(getrlimit.o)
 .debug_frame   0x0000000000000f50       0x40 0x8 /usr/local/popcorn/x86_64/lib/libc.a(syscall.o)
 .debug_frame   0x0000000000000f90       0x30 0x8 /usr/local/popcorn/x86_64/lib/libc.a(madvise.o)
 .debug_frame   0x0000000000000fc0       0x70 0x8 /usr/local/popcorn/x86_64/lib/libc.a(mmap.o)
 .debug_frame   0x0000000000001030       0x68 0x8 /usr/local/popcorn/x86_64/lib/libc.a(mremap.o)
 .debug_frame   0x0000000000001098       0x58 0x8 /usr/local/popcorn/x86_64/lib/libc.a(munmap.o)
 .debug_frame   0x00000000000010f0       0x80 0x8 /usr/local/popcorn/x86_64/lib/libc.a(sigaction.o)
 .debug_frame   0x0000000000001170       0x30 0x8 /usr/local/popcorn/x86_64/lib/libc.a(sigemptyset.o)
 .debug_frame   0x00000000000011a0       0x30 0x8 /usr/local/popcorn/x86_64/lib/libc.a(sigrtmin.o)
 .debug_frame   0x00000000000011d0       0x68 0x8 /usr/local/popcorn/x86_64/lib/libc.a(fclose.o)
 .debug_frame   0x0000000000001238       0x48 0x8 /usr/local/popcorn/x86_64/lib/libc.a(fflush.o)
 .debug_frame   0x0000000000001280       0x40 0x8 /usr/local/popcorn/x86_64/lib/libc.a(fopen.o)
 .debug_frame   0x00000000000012c0       0x38 0x8 /usr/local/popcorn/x86_64/lib/libc.a(fprintf.o)
 .debug_frame   0x00000000000012f8       0x38 0x8 /usr/local/popcorn/x86_64/lib/libc.a(fscanf.o)
 .debug_frame   0x0000000000001330       0x90 0x8 /usr/local/popcorn/x86_64/lib/libc.a(fseek.o)
 .debug_frame   0x00000000000013c0       0x40 0x8 /usr/local/popcorn/x86_64/lib/libc.a(getc.o)
 .debug_frame   0x0000000000001400       0x30 0x8 /usr/local/popcorn/x86_64/lib/libc.a(getline.o)
 .debug_frame   0x0000000000001430       0x48 0x8 /usr/local/popcorn/x86_64/lib/libc.a(perror.o)
 .debug_frame   0x0000000000001478       0x38 0x8 /usr/local/popcorn/x86_64/lib/libc.a(snprintf.o)
 .debug_frame   0x00000000000014b0       0x38 0x8 /usr/local/popcorn/x86_64/lib/libc.a(sscanf.o)
 .debug_frame   0x00000000000014e8       0x58 0x8 /usr/local/popcorn/x86_64/lib/libc.a(vfscanf.o)
 .debug_frame   0x0000000000001540       0x90 0x8 /usr/local/popcorn/x86_64/lib/libc.a(vsnprintf.o)
 .debug_frame   0x00000000000015d0       0x60 0x8 /usr/local/popcorn/x86_64/lib/libc.a(vsscanf.o)
 .debug_frame   0x0000000000001630       0x58 0x8 /usr/local/popcorn/x86_64/lib/libc.a(bsearch.o)
 .debug_frame   0x0000000000001688      0x118 0x8 /usr/local/popcorn/x86_64/lib/libc.a(qsort.o)
 .debug_frame   0x00000000000017a0       0xe0 0x8 /usr/local/popcorn/x86_64/lib/libc.a(strtol.o)
 .debug_frame   0x0000000000001880       0x38 0x8 /usr/local/popcorn/x86_64/lib/libc.a(strchr.o)
 .debug_frame   0x00000000000018b8       0x38 0x8 /usr/local/popcorn/x86_64/lib/libc.a(strchrnul.o)
 .debug_frame   0x00000000000018f0       0x30 0x8 /usr/local/popcorn/x86_64/lib/libc.a(strcmp.o)
 .debug_frame   0x0000000000001920       0x30 0x8 /usr/local/popcorn/x86_64/lib/libc.a(strlen.o)
 .debug_frame   0x0000000000001950       0x30 0x8 /usr/local/popcorn/x86_64/lib/libc.a(strncmp.o)
 .debug_frame   0x0000000000001980       0x50 0x8 /usr/local/popcorn/x86_64/lib/libc.a(__syscall_cp.o)
 .debug_frame   0x00000000000019d0      0x198 0x8 /usr/local/popcorn/x86_64/lib/libc.a(pthread_attr_get.o)
 .debug_frame   0x0000000000001b68       0x48 0x8 /usr/local/popcorn/x86_64/lib/libc.a(pthread_getattr_np.o)
 .debug_frame   0x0000000000001bb0       0x48 0x8 /usr/local/popcorn/x86_64/lib/libc.a(pthread_migrate.o)
 .debug_frame   0x0000000000001bf8       0x30 0x8 /usr/local/popcorn/x86_64/lib/libc.a(pthread_self.o)
 .debug_frame   0x0000000000001c28       0x50 0x8 /usr/local/popcorn/x86_64/lib/libc.a(close.o)
 .debug_frame   0x0000000000001c78       0x30 0x8 /usr/local/popcorn/x86_64/lib/libc.a(getpid.o)
 .debug_frame   0x0000000000001ca8       0x30 0x8 /usr/local/popcorn/x86_64/lib/libc.a(lseek.o)
 .debug_frame   0x0000000000001cd8       0x38 0x8 /usr/local/popcorn/x86_64/lib/libc.a(read.o)
 .debug_frame   0x0000000000001d10       0x38 0x8 /usr/local/popcorn/x86_64/lib/libc.a(abort.o)
 .debug_frame   0x0000000000001d48       0x98 0x8 /usr/local/popcorn/x86_64/lib/libc.a(floatscan.o)
 .debug_frame   0x0000000000001de0       0x58 0x8 /usr/local/popcorn/x86_64/lib/libc.a(intscan.o)
 .debug_frame   0x0000000000001e38       0x50 0x8 /usr/local/popcorn/x86_64/lib/libc.a(shgetc.o)
 .debug_frame   0x0000000000001e88       0x98 0x8 /usr/local/popcorn/x86_64/lib/libc.a(expand_heap.o)
 .debug_frame   0x0000000000001f20       0x30 0x8 /usr/local/popcorn/x86_64/lib/libc.a(copysignl.o)
 .debug_frame   0x0000000000001f50       0x30 0x8 /usr/local/popcorn/x86_64/lib/libc.a(scalbn.o)
 .debug_frame   0x0000000000001f80       0x30 0x8 /usr/local/popcorn/x86_64/lib/libc.a(scalbnl.o)
 .debug_frame   0x0000000000001fb0       0x40 0x8 /usr/local/popcorn/x86_64/lib/libc.a(mbrtowc.o)
 .debug_frame   0x0000000000001ff0       0x30 0x8 /usr/local/popcorn/x86_64/lib/libc.a(mbsinit.o)
 .debug_frame   0x0000000000002020       0x60 0x8 /usr/local/popcorn/x86_64/lib/libc.a(block.o)
 .debug_frame   0x0000000000002080       0x40 0x8 /usr/local/popcorn/x86_64/lib/libc.a(raise.o)
 .debug_frame   0x00000000000020c0       0x48 0x8 /usr/local/popcorn/x86_64/lib/libc.a(__fdopen.o)
 .debug_frame   0x0000000000002108       0x40 0x8 /usr/local/popcorn/x86_64/lib/libc.a(__fmodeflags.o)
 .debug_frame   0x0000000000002148       0x48 0x8 /usr/local/popcorn/x86_64/lib/libc.a(__stdio_read.o)
 .debug_frame   0x0000000000002190       0x58 0x8 /usr/local/popcorn/x86_64/lib/libc.a(__string_read.o)
 .debug_frame   0x00000000000021e8       0x40 0x8 /usr/local/popcorn/x86_64/lib/libc.a(__uflow.o)
 .debug_frame   0x0000000000002228       0x40 0x8 /usr/local/popcorn/x86_64/lib/libc.a(fputc.o)
 .debug_frame   0x0000000000002268       0x58 0x8 /usr/local/popcorn/x86_64/lib/libc.a(getdelim.o)
 .debug_frame   0x00000000000022c0       0x38 0x8 /usr/local/popcorn/x86_64/lib/libc.a(ofl_add.o)
 .debug_frame   0x00000000000022f8       0x40 0x8 /usr/local/popcorn/x86_64/lib/libc.a(__overflow.o)
 .debug_frame   0x0000000000002338       0x58 0x8 /usr/local/popcorn/x86_64/lib/libc.a(__toread.o)

.debug_aranges  0x0000000000000000      0x180
 .debug_aranges
                0x0000000000000000       0x30 0x1 /usr/local/popcorn/x86_64/lib/libc.a(memset.o)
 .debug_aranges
                0x0000000000000030       0x30 0x1 /usr/local/popcorn/x86_64/lib/libc.a(memcpy.o)
 .debug_aranges
                0x0000000000000060       0x30 0x1 /usr/local/popcorn/x86_64/lib/libc.a(__set_thread_area.o)
 .debug_aranges
                0x0000000000000090       0x30 0x1 /usr/local/popcorn/x86_64/lib/libc.a(restore.o)
 .debug_aranges
                0x00000000000000c0       0x30 0x1 /usr/local/popcorn/x86_64/lib/libc.a(memmove.o)
 .debug_aranges
                0x00000000000000f0       0x30 0x1 /usr/local/popcorn/x86_64/lib/libc.a(syscall.o)
 .debug_aranges
                0x0000000000000120       0x30 0x1 /usr/local/popcorn/x86_64/lib/libc.a(fabs.o)
 .debug_aranges
                0x0000000000000150       0x30 0x1 /usr/local/popcorn/x86_64/lib/libc.a(fmodl.o)

.note.gnu.gold-version
                0x0000000000000000       0x1c
 ** note header
                0x0000000000000000       0x10
 ** fill        0x0000000000000010        0x9
 ** zero fill   0x0000000000000019        0x3

.symtab         0x0000000000000000     0x5598
 ** symtab      0x0000000000000000     0x5598

.strtab         0x0000000000000000     0x39da
 ** string table
                0x0000000000000000     0x39da

.shstrtab       0x0000000000000000      0x17f
 ** string table
                0x0000000000000000      0x17f
